(dp1
S'c15_16_18309.5_18311.33.wav'
p2
(lp3
I0
aI11
asS'23_15_3171.29_3173.04.wav'
p4
(lp5
I0
aI20
asS'c22_15_45633220.0_45633830.0.wav'
p6
(lp7
I0
aI11
asS'C25_08_23792.18_23793.22.wav'
p8
(lp9
I0
aI22
asS'04_08_13760.59_13761.2.wav'
p10
(lp11
I0
aI11
asS'23_15_35737.5_35738.21.wav'
p12
(lp13
I0
aI20
asS'04_08_17321.85_17325.26.wav'
p14
(lp15
I0
aI22
asS'c15_16_24733.67_24734.83.wav'
p16
(lp17
I0
aI33
asS'C25_08_56896.82_56897.8.wav'
p18
(lp19
I0
aI22
asS'c22_15_32899210.0_32899910.0.wav'
p20
(lp21
I0
aI29
asS'23_15_25483.09_25485.23.wav'
p22
(lp23
I0
aI0
asS'23_15_38620.85_38621.45.wav'
p24
(lp25
I0
aI22
asS'04_08_8467.96_8468.56.wav'
p26
(lp27
I0
aI20
asS'C25_08_31205.58_31206.18.wav'
p28
(lp29
I0
aI27
asS'15_16_44339.52_44340.12.wav'
p30
(lp31
I0
aI11
asS'15_16_2118.04_2118.65.wav'
p32
(lp33
I0
aI20
asS'15_16_35386.25_35387.19.wav'
p34
(lp35
I0
aI18
asS'c15_16_26153.09_26154.47.wav'
p36
(lp37
I0
aI22
asS'c22_15_49000390.0_49001440.0.wav'
p38
(lp39
I0
aI9
asS'c22_15_56458940.0_56459640.0.wav'
p40
(lp41
I0
aI18
asS'15_16_44026.23_44026.83.wav'
p42
(lp43
I0
aI11
asS'15_16_9645.24_9646.24.wav'
p44
(lp45
I0
aI22
asS'c22_15_501080.0_501680.0.wav'
p46
(lp47
I0
aI11
asS'c22_15_46979490.0_46980090.0.wav'
p48
(lp49
I0
aI18
asS'23_15_1099.21_1100.05.wav'
p50
(lp51
I0
aI11
asS'C25_08_19154.25_19155.68.wav'
p52
(lp53
I0
aI11
asS'C25_08_4598.83_4600.35.wav'
p54
(lp55
I0
aI11
asS'04_08_39990.69_39991.4.wav'
p56
(lp57
I0
aI9
asS'23_15_15247.06_15251.32.wav'
p58
(lp59
I0
aI11
asS'04_08_1687.3_1688.03.wav'
p60
(lp61
I0
aI20
asS'15_16_9850.85_9851.85.wav'
p62
(lp63
I0
aI31
asS'04_08_9417.59_9418.19.wav'
p64
(lp65
I0
aI22
asS'04_08_2497.14_2498.84.wav'
p66
(lp67
I0
aI22
asS'15_16_42868.51_42869.25.wav'
p68
(lp69
I0
aI11
asS'c22_15_57343970.0_57345400.0.wav'
p70
(lp71
I0
aI9
asS'C25_08_566.55_567.2.wav'
p72
(lp73
I0
aI22
asS'C25_08_15622.72_15625.54.wav'
p74
(lp75
I0
aI11
asS'C25_08_3625.53_3627.28.wav'
p76
(lp77
I0
aI11
asS'23_15_2625.69_2627.93.wav'
p78
(lp79
I0
aI11
asS'23_15_26597.4_26598.01.wav'
p80
(lp81
I0
aI9
asS'c15_16_11897.3_11898.98.wav'
p82
(lp83
I0
aI11
asS'04_08_29267.76_29270.4.wav'
p84
(lp85
I0
aI9
asS'04_08_16695.77_16697.04.wav'
p86
(lp87
I0
aI18
asS'23_15_47534.84_47535.67.wav'
p88
(lp89
I0
aI11
asS'15_16_46898.8_46899.63.wav'
p90
(lp91
I0
aI11
asS'c15_16_20088.41_20089.17.wav'
p92
(lp93
I0
aI22
asS'04_08_25067.19_25067.99.wav'
p94
(lp95
I0
aI18
asS'c22_15_53227420.0_53228970.0.wav'
p96
(lp97
I0
aI22
asS'c22_15_51465410.0_51466210.0.wav'
p98
(lp99
I0
aI11
asS'C25_08_44799.39_44802.37.wav'
p100
(lp101
I0
aI11
asS'23_15_18524.18_18526.83.wav'
p102
(lp103
I0
aI22
asS'c15_16_36567.25_36567.95.wav'
p104
(lp105
I0
aI22
asS'15_16_29970.83_29971.55.wav'
p106
(lp107
I0
aI22
asS'C25_08_29804.07_29806.84.wav'
p108
(lp109
I0
aI18
asS'c15_16_31680.49_31681.22.wav'
p110
(lp111
I0
aI22
asS'c22_15_51623020.0_51623900.0.wav'
p112
(lp113
I0
aI11
asS'C25_08_20423.04_20423.65.wav'
p114
(lp115
I0
aI11
asS'04_08_17944.18_17945.4.wav'
p116
(lp117
I0
aI11
asS'23_15_39437.35_39440.04.wav'
p118
(lp119
I0
aI11
asS'23_15_39442.96_39444.08.wav'
p120
(lp121
I0
aI9
asS'c22_15_53000150.0_53000750.0.wav'
p122
(lp123
I0
aI22
asS'C25_08_15808.18_15808.78.wav'
p124
(lp125
I0
aI18
asS'c15_16_23266.07_23266.82.wav'
p126
(lp127
I0
aI18
asS'23_15_43037.89_43038.49.wav'
p128
(lp129
I0
aI22
asS'c22_15_165140.0_165790.0.wav'
p130
(lp131
I0
aI11
asS'c15_16_19511.04_19512.05.wav'
p132
(lp133
I0
aI29
asS'15_16_44134.84_44136.41.wav'
p134
(lp135
I0
aI20
asS'04_08_46327.54_46330.24.wav'
p136
(lp137
I0
aI22
asS'04_08_1569.85_1570.45.wav'
p138
(lp139
I0
aI20
asS'c22_15_1007970.0_1009790.0.wav'
p140
(lp141
I0
aI9
asS'15_16_33807.4_33808.01.wav'
p142
(lp143
I0
aI11
asS'c15_16_26799.41_26800.01.wav'
p144
(lp145
I0
aI22
asS'C25_08_9868.2_9868.8.wav'
p146
(lp147
I0
aI11
asS'c15_16_12414.72_12415.74.wav'
p148
(lp149
I0
aI11
asS'04_08_39558.41_39560.88.wav'
p150
(lp151
I0
aI22
asS'23_15_1408.71_1410.52.wav'
p152
(lp153
I0
aI20
asS'c15_16_850.75_852.19.wav'
p154
(lp155
I0
aI22
asS'23_15_45527.35_45528.58.wav'
p156
(lp157
I0
aI20
asS'15_16_39680.37_39680.97.wav'
p158
(lp159
I0
aI20
asS'C25_08_25196.57_25197.77.wav'
p160
(lp161
I0
aI11
asS'c22_15_52491280.0_52491880.0.wav'
p162
(lp163
I0
aI18
asS'04_08_438.78_439.38.wav'
p164
(lp165
I0
aI20
asS'c15_16_30389.95_30390.83.wav'
p166
(lp167
I0
aI20
asS'04_08_48122.25_48123.07.wav'
p168
(lp169
I0
aI11
asS'23_15_97.87_99.6.wav'
p170
(lp171
I0
aI22
asS'04_08_35185.64_35186.24.wav'
p172
(lp173
I0
aI29
asS'23_15_20354.77_20355.89.wav'
p174
(lp175
I0
aI22
asS'c22_15_50027460.0_50028250.0.wav'
p176
(lp177
I0
aI20
asS'c22_15_3453610.0_3455960.0.wav'
p178
(lp179
I0
aI29
asS'c22_15_47777420.0_47779300.0.wav'
p180
(lp181
I0
aI9
asS'C25_08_21951.78_21952.38.wav'
p182
(lp183
I0
aI22
asS'c15_16_9166.36_9168.34.wav'
p184
(lp185
I0
aI22
asS'c22_15_49907130.0_49907730.0.wav'
p186
(lp187
I0
aI18
asS'C25_08_23334.72_23335.71.wav'
p188
(lp189
I0
aI20
asS'04_08_25054.65_25055.5.wav'
p190
(lp191
I0
aI31
asS'23_15_56446.52_56449.9.wav'
p192
(lp193
I0
aI33
asS'C25_08_7106.78_7107.38.wav'
p194
(lp195
I0
aI22
asS'c15_16_11450.75_11451.49.wav'
p196
(lp197
I0
aI11
asS'23_15_14111.86_14112.63.wav'
p198
(lp199
I0
aI22
asS'15_16_46183.66_46184.46.wav'
p200
(lp201
I0
aI11
asS'15_16_18587.88_18589.6.wav'
p202
(lp203
I0
aI22
asS'15_16_19167.22_19168.1.wav'
p204
(lp205
I0
aI22
asS'04_08_19503.74_19505.56.wav'
p206
(lp207
I0
aI29
asS'04_08_46531.68_46532.28.wav'
p208
(lp209
I0
aI22
asS'c15_16_23051.4_23052.13.wav'
p210
(lp211
I0
aI22
asS'c15_16_25836.61_25837.21.wav'
p212
(lp213
I0
aI11
asS'c15_16_31601.92_31602.76.wav'
p214
(lp215
I0
aI11
asS'c15_16_30789.09_30789.69.wav'
p216
(lp217
I0
aI18
asS'15_16_32259.14_32259.76.wav'
p218
(lp219
I0
aI11
asS'c15_16_34813.45_34814.26.wav'
p220
(lp221
I0
aI22
asS'15_16_46996.01_46996.66.wav'
p222
(lp223
I0
aI22
asS'c15_16_11909.96_11911.64.wav'
p224
(lp225
I0
aI0
asS'23_15_38057.81_38058.41.wav'
p226
(lp227
I0
aI22
asS'23_15_39435.36_39435.96.wav'
p228
(lp229
I0
aI11
asS'23_15_3763.15_3763.75.wav'
p230
(lp231
I0
aI11
asS'23_15_46975.64_46976.88.wav'
p232
(lp233
I0
aI22
asS'23_15_35493.37_35494.17.wav'
p234
(lp235
I0
aI9
asS'23_15_4460.71_4463.27.wav'
p236
(lp237
I0
aI22
asS'c22_15_1243800.0_1244400.0.wav'
p238
(lp239
I0
aI22
asS'c15_16_33962.52_33963.24.wav'
p240
(lp241
I0
aI11
asS'23_15_38112.04_38113.29.wav'
p242
(lp243
I0
aI22
asS'c22_15_53684650.0_53685540.0.wav'
p244
(lp245
I0
aI11
asS'c15_16_46044.98_46045.58.wav'
p246
(lp247
I0
aI9
asS'04_08_2711.32_2712.71.wav'
p248
(lp249
I0
aI9
asS'C25_08_26893.67_26895.56.wav'
p250
(lp251
I0
aI9
asS'c15_16_31631.21_31632.79.wav'
p252
(lp253
I0
aI11
asS'C25_08_44681.04_44684.58.wav'
p254
(lp255
I0
aI22
asS'15_16_4421.52_4422.17.wav'
p256
(lp257
I0
aI11
asS'23_15_26303.74_26304.34.wav'
p258
(lp259
I0
aI33
asS'04_08_8092.67_8095.53.wav'
p260
(lp261
I0
aI22
asS'c22_15_52434190.0_52434870.0.wav'
p262
(lp263
I0
aI33
asS'04_08_44214.3_44214.9.wav'
p264
(lp265
I0
aI22
asS'C25_08_25123.76_25124.36.wav'
p266
(lp267
I0
aI11
asS'23_15_45895.54_45896.37.wav'
p268
(lp269
I0
aI22
asS'c22_15_51752190.0_51752820.0.wav'
p270
(lp271
I0
aI18
asS'23_15_35911.32_35912.79.wav'
p272
(lp273
I0
aI11
asS'15_16_11866.89_11867.69.wav'
p274
(lp275
I0
aI22
asS'c15_16_18077.33_18080.35.wav'
p276
(lp277
I0
aI20
asS'c15_16_2746.7_2747.31.wav'
p278
(lp279
I0
aI20
asS'23_15_8388.14_8388.87.wav'
p280
(lp281
I0
aI22
asS'15_16_127.49_130.23.wav'
p282
(lp283
I0
aI11
asS'C25_08_17702.11_17702.71.wav'
p284
(lp285
I0
aI22
asS'15_16_44108.13_44108.73.wav'
p286
(lp287
I0
aI29
asS'15_16_34239.25_34240.05.wav'
p288
(lp289
I0
aI11
asS'c22_15_53966690.0_53967430.0.wav'
p290
(lp291
I0
aI11
asS'04_08_3149.9_3152.32.wav'
p292
(lp293
I0
aI11
asS'C25_08_17283.85_17285.37.wav'
p294
(lp295
I0
aI22
asS'15_16_36834.19_36835.43.wav'
p296
(lp297
I0
aI11
asS'04_08_29605.32_29605.92.wav'
p298
(lp299
I0
aI22
asS'15_16_106.77_107.38.wav'
p300
(lp301
I0
aI11
asS'04_08_8052.74_8053.54.wav'
p302
(lp303
I0
aI20
asS'C25_08_24201.67_24202.27.wav'
p304
(lp305
I0
aI18
asS'04_08_30342.57_30343.17.wav'
p306
(lp307
I0
aI22
asS'15_16_42609.92_42610.57.wav'
p308
(lp309
I0
aI22
asS'C25_08_7254.72_7255.52.wav'
p310
(lp311
I0
aI31
asS'15_16_37618.82_37619.56.wav'
p312
(lp313
I0
aI22
asS'c15_16_2909.68_2910.35.wav'
p314
(lp315
I0
aI18
asS'04_08_15744.39_15746.84.wav'
p316
(lp317
I0
aI20
asS'15_16_2900.59_2901.19.wav'
p318
(lp319
I0
aI20
asS'c15_16_35313.02_35313.96.wav'
p320
(lp321
I0
aI11
asS'23_15_2934.7_2935.54.wav'
p322
(lp323
I0
aI22
asS'15_16_40657.16_40657.91.wav'
p324
(lp325
I0
aI11
asS'15_16_10127.65_10128.27.wav'
p326
(lp327
I0
aI11
asS'c15_16_18471.64_18472.63.wav'
p328
(lp329
I0
aI11
asS'c22_15_55970460.0_55971480.0.wav'
p330
(lp331
I0
aI22
asS'c22_15_44703120.0_44704120.0.wav'
p332
(lp333
I0
aI20
asS'c15_16_31466.25_31467.33.wav'
p334
(lp335
I0
aI22
asS'04_08_3232.67_3233.97.wav'
p336
(lp337
I0
aI11
asS'c22_15_54029440.0_54030200.0.wav'
p338
(lp339
I0
aI11
asS'04_08_42056.07_42056.67.wav'
p340
(lp341
I0
aI11
asS'15_16_4967.16_4967.76.wav'
p342
(lp343
I0
aI11
asS'c22_15_47874390.0_47874990.0.wav'
p344
(lp345
I0
aI9
asS'04_08_45022.92_45023.58.wav'
p346
(lp347
I0
aI20
asS'c15_16_6789.15_6790.19.wav'
p348
(lp349
I0
aI29
asS'04_08_31860.78_31862.22.wav'
p350
(lp351
I0
aI22
asS'15_16_1971.41_1972.01.wav'
p352
(lp353
I0
aI20
asS'C25_08_28886.52_28887.45.wav'
p354
(lp355
I0
aI22
asS'C25_08_24568.4_24569.15.wav'
p356
(lp357
I0
aI22
asS'c22_15_48840850.0_48841940.0.wav'
p358
(lp359
I0
aI22
asS'04_08_28580.57_28586.46.wav'
p360
(lp361
I0
aI20
asS'23_15_17666.22_17667.02.wav'
p362
(lp363
I0
aI22
asS'c22_15_178910.0_179510.0.wav'
p364
(lp365
I0
aI22
asS'23_15_26189.87_26190.5.wav'
p366
(lp367
I0
aI11
asS'c22_15_53774240.0_53776010.0.wav'
p368
(lp369
I0
aI9
asS'C25_08_15742.18_15743.58.wav'
p370
(lp371
I0
aI9
asS'c15_16_34012.91_34013.55.wav'
p372
(lp373
I0
aI22
asS'c22_15_53717100.0_53717870.0.wav'
p374
(lp375
I0
aI11
asS'c22_15_50965080.0_50965680.0.wav'
p376
(lp377
I0
aI11
asS'c22_15_51468570.0_51469220.0.wav'
p378
(lp379
I0
aI20
asS'04_08_34708.99_34709.92.wav'
p380
(lp381
I0
aI22
asS'04_08_31629.5_31630.1.wav'
p382
(lp383
I0
aI20
asS'C25_08_15199.35_15201.15.wav'
p384
(lp385
I0
aI11
asS'04_08_28912.03_28912.63.wav'
p386
(lp387
I0
aI22
asS'c15_16_34184.64_34185.41.wav'
p388
(lp389
I0
aI31
asS'23_15_16981.07_16981.96.wav'
p390
(lp391
I0
aI11
asS'23_15_46059.61_46060.39.wav'
p392
(lp393
I0
aI33
asS'23_15_7478.76_7480.33.wav'
p394
(lp395
I0
aI11
asS'c22_15_50021840.0_50024180.0.wav'
p396
(lp397
I0
aI22
asS'c15_16_34438.18_34438.78.wav'
p398
(lp399
I0
aI20
asS'c22_15_48743800.0_48744800.0.wav'
p400
(lp401
I0
aI20
asS'c15_16_21805.13_21805.73.wav'
p402
(lp403
I0
aI22
asS'04_08_34715.22_34716.99.wav'
p404
(lp405
I0
aI22
asS'23_15_9225.06_9227.45.wav'
p406
(lp407
I0
aI22
asS'c15_16_23929.12_23929.72.wav'
p408
(lp409
I0
aI20
asS'c22_15_1673600.0_1674210.0.wav'
p410
(lp411
I0
aI22
asS'15_16_166.31_166.95.wav'
p412
(lp413
I0
aI20
asS'04_08_8301.63_8303.81.wav'
p414
(lp415
I0
aI22
asS'c15_16_25799.39_25800.37.wav'
p416
(lp417
I0
aI27
asS'c22_15_50771090.0_50771690.0.wav'
p418
(lp419
I0
aI22
asS'c15_16_20595.86_20596.68.wav'
p420
(lp421
I0
aI22
asS'15_16_3931.25_3931.88.wav'
p422
(lp423
I0
aI20
asS'C25_08_22566.18_22566.78.wav'
p424
(lp425
I0
aI22
asS'04_08_44028.83_44029.58.wav'
p426
(lp427
I0
aI22
asS'04_08_14922.95_14924.15.wav'
p428
(lp429
I0
aI20
asS'04_08_33781.95_33784.47.wav'
p430
(lp431
I0
aI22
asS'15_16_41995.85_41996.54.wav'
p432
(lp433
I0
aI9
asS'04_08_26139.71_26140.46.wav'
p434
(lp435
I0
aI20
asS'c22_15_56506930.0_56507530.0.wav'
p436
(lp437
I0
aI11
asS'C25_08_19170.84_19171.44.wav'
p438
(lp439
I0
aI22
asS'04_08_46717.48_46718.3.wav'
p440
(lp441
I0
aI11
asS'23_15_28439.98_28442.26.wav'
p442
(lp443
I0
aI33
asS'15_16_14038.19_14040.22.wav'
p444
(lp445
I0
aI22
asS'23_15_18579.28_18580.28.wav'
p446
(lp447
I0
aI22
asS'c22_15_53915130.0_53916230.0.wav'
p448
(lp449
I0
aI11
asS'c22_15_52534880.0_52535570.0.wav'
p450
(lp451
I0
aI11
asS'c22_15_50589710.0_50590870.0.wav'
p452
(lp453
I0
aI29
asS'04_08_2341.85_2342.57.wav'
p454
(lp455
I0
aI11
asS'c22_15_50756540.0_50757190.0.wav'
p456
(lp457
I0
aI33
asS'15_16_33119.87_33120.88.wav'
p458
(lp459
I0
aI9
asS'c15_16_22194.39_22194.99.wav'
p460
(lp461
I0
aI18
asS'04_08_17126.79_17127.4.wav'
p462
(lp463
I0
aI22
asS'23_15_14823.86_14826.33.wav'
p464
(lp465
I0
aI11
asS'C25_08_27075.4_27076.39.wav'
p466
(lp467
I0
aI11
asS'c22_15_45235960.0_45236970.0.wav'
p468
(lp469
I0
aI9
asS'C25_08_22588.14_22590.69.wav'
p470
(lp471
I0
aI11
asS'C25_08_49578.13_49578.73.wav'
p472
(lp473
I0
aI33
asS'15_16_15180.9_15181.5.wav'
p474
(lp475
I0
aI22
asS'c22_15_57317510.0_57318130.0.wav'
p476
(lp477
I0
aI11
asS'C25_08_3099.8_3100.4.wav'
p478
(lp479
I0
aI22
asS'04_08_8770.58_8771.18.wav'
p480
(lp481
I0
aI20
asS'c15_16_6492.5_6493.13.wav'
p482
(lp483
I0
aI22
asS'23_15_13383.51_13384.22.wav'
p484
(lp485
I0
aI11
asS'15_16_6695.98_6696.64.wav'
p486
(lp487
I0
aI18
asS'C25_08_7233.53_7235.35.wav'
p488
(lp489
I0
aI11
asS'c22_15_50517370.0_50518530.0.wav'
p490
(lp491
I0
aI20
asS'C25_08_49462.17_49463.74.wav'
p492
(lp493
I0
aI22
asS'c22_15_53798960.0_53799640.0.wav'
p494
(lp495
I0
aI22
asS'c15_16_6018.93_6019.6.wav'
p496
(lp497
I0
aI22
asS'c15_16_1812.95_1813.75.wav'
p498
(lp499
I0
aI22
asS'04_08_29008.08_29009.98.wav'
p500
(lp501
I0
aI11
asS'23_15_44764.18_44764.97.wav'
p502
(lp503
I0
aI20
asS'C25_08_24848.09_24848.69.wav'
p504
(lp505
I0
aI11
asS'23_15_36912.04_36912.64.wav'
p506
(lp507
I0
aI11
asS'04_08_34667.8_34671.06.wav'
p508
(lp509
I0
aI33
asS'C25_08_32777.34_32778.53.wav'
p510
(lp511
I0
aI22
asS'c15_16_5878.46_5880.62.wav'
p512
(lp513
I0
aI22
asS'C25_08_4285.87_4286.49.wav'
p514
(lp515
I0
aI11
asS'23_15_56246.98_56247.86.wav'
p516
(lp517
I0
aI11
asS'c22_15_53523440.0_53524740.0.wav'
p518
(lp519
I0
aI22
asS'23_15_46592.82_46596.66.wav'
p520
(lp521
I0
aI11
asS'c22_15_48883010.0_48884970.0.wav'
p522
(lp523
I0
aI20
asS'c22_15_47416930.0_47417670.0.wav'
p524
(lp525
I0
aI22
asS'23_15_44484.17_44485.38.wav'
p526
(lp527
I0
aI22
asS'c22_15_50637540.0_50638560.0.wav'
p528
(lp529
I0
aI22
asS'c15_16_20633.6_20634.28.wav'
p530
(lp531
I0
aI20
asS'15_16_10889.97_10891.24.wav'
p532
(lp533
I0
aI11
asS'15_16_37336.88_37337.56.wav'
p534
(lp535
I0
aI11
asS'04_08_43846.98_43847.58.wav'
p536
(lp537
I0
aI11
asS'15_16_42060.03_42061.79.wav'
p538
(lp539
I0
aI22
asS'23_15_36796.23_36798.21.wav'
p540
(lp541
I0
aI11
asS'04_08_18122.39_18123.23.wav'
p542
(lp543
I0
aI11
asS'C25_08_674.24_675.24.wav'
p544
(lp545
I0
aI11
asS'15_16_9638.32_9639.63.wav'
p546
(lp547
I0
aI11
asS'15_16_8888.42_8889.6.wav'
p548
(lp549
I0
aI33
asS'c15_16_9094.22_9094.82.wav'
p550
(lp551
I0
aI11
asS'04_08_28302.19_28306.57.wav'
p552
(lp553
I0
aI33
asS'04_08_29848.14_29848.78.wav'
p554
(lp555
I0
aI11
asS'c15_16_5954.29_5955.82.wav'
p556
(lp557
I0
aI27
asS'C25_08_24742.31_24743.11.wav'
p558
(lp559
I0
aI20
asS'15_16_32792.08_32793.14.wav'
p560
(lp561
I0
aI11
asS'04_08_44119.11_44119.77.wav'
p562
(lp563
I0
aI11
asS'c15_16_6389.36_6390.49.wav'
p564
(lp565
I0
aI22
asS'04_08_19260.56_19261.16.wav'
p566
(lp567
I0
aI27
asS'c22_15_53308350.0_53312230.0.wav'
p568
(lp569
I0
aI20
asS'c22_15_49065420.0_49066080.0.wav'
p570
(lp571
I0
aI11
asS'C25_08_9510.13_9510.74.wav'
p572
(lp573
I0
aI11
asS'04_08_25449.39_25451.19.wav'
p574
(lp575
I0
aI22
asS'23_15_10105.99_10106.59.wav'
p576
(lp577
I0
aI18
asS'04_08_44080.75_44084.8.wav'
p578
(lp579
I0
aI22
asS'c22_15_44395820.0_44396430.0.wav'
p580
(lp581
I0
aI11
asS'c15_16_24783.44_24784.25.wav'
p582
(lp583
I0
aI11
asS'C25_08_49474.75_49475.78.wav'
p584
(lp585
I0
aI22
asS'c15_16_33851.62_33852.24.wav'
p586
(lp587
I0
aI9
asS'c22_15_51294760.0_51295360.0.wav'
p588
(lp589
I0
aI22
asS'C25_08_23612.35_23613.71.wav'
p590
(lp591
I0
aI11
asS'c15_16_1288.97_1289.57.wav'
p592
(lp593
I0
aI20
asS'04_08_18313.98_18315.23.wav'
p594
(lp595
I0
aI11
asS'23_15_18047.79_18049.37.wav'
p596
(lp597
I0
aI11
asS'c15_16_20396.01_20397.02.wav'
p598
(lp599
I0
aI22
asS'15_16_8869.64_8870.64.wav'
p600
(lp601
I0
aI11
asS'c15_16_21782.53_21783.99.wav'
p602
(lp603
I0
aI18
asS'c15_16_14263.32_14263.92.wav'
p604
(lp605
I0
aI18
asS'23_15_56220.44_56221.66.wav'
p606
(lp607
I0
aI33
asS'c22_15_51918770.0_51919380.0.wav'
p608
(lp609
I0
aI18
asS'04_08_41100.13_41101.19.wav'
p610
(lp611
I0
aI22
asS'23_15_24088.05_24089.06.wav'
p612
(lp613
I0
aI20
asS'23_15_56429.48_56434.67.wav'
p614
(lp615
I0
aI22
asS'c15_16_4209.84_4210.44.wav'
p616
(lp617
I0
aI11
asS'c15_16_9063.55_9064.28.wav'
p618
(lp619
I0
aI22
asS'23_15_33941.16_33942.35.wav'
p620
(lp621
I0
aI11
asS'15_16_3159.33_3159.93.wav'
p622
(lp623
I0
aI22
asS'c22_15_665480.0_666080.0.wav'
p624
(lp625
I0
aI22
asS'c22_15_50969850.0_50970450.0.wav'
p626
(lp627
I0
aI11
asS'23_15_39353.47_39354.07.wav'
p628
(lp629
I0
aI0
asS'04_08_11839.45_11840.05.wav'
p630
(lp631
I0
aI22
asS'c22_15_51874580.0_51875180.0.wav'
p632
(lp633
I0
aI11
asS'C25_08_3533.52_3534.89.wav'
p634
(lp635
I0
aI22
asS'15_16_34532.61_34533.5.wav'
p636
(lp637
I0
aI22
asS'C25_08_22907.52_22908.12.wav'
p638
(lp639
I0
aI20
asS'C25_08_23645.27_23645.96.wav'
p640
(lp641
I0
aI22
asS'23_15_14077.24_14079.24.wav'
p642
(lp643
I0
aI11
asS'c15_16_3284.14_3284.75.wav'
p644
(lp645
I0
aI18
asS'15_16_4752.49_4754.18.wav'
p646
(lp647
I0
aI22
asS'C25_08_20700.42_20701.44.wav'
p648
(lp649
I0
aI20
asS'c15_16_34058.32_34058.92.wav'
p650
(lp651
I0
aI18
asS'23_15_38667.84_38669.3.wav'
p652
(lp653
I0
aI22
asS'23_15_46619.04_46619.82.wav'
p654
(lp655
I0
aI11
asS'04_08_18604.34_18604.94.wav'
p656
(lp657
I0
aI20
asS'c22_15_49320240.0_49321230.0.wav'
p658
(lp659
I0
aI20
asS'15_16_37529.05_37529.65.wav'
p660
(lp661
I0
aI18
asS'04_08_18236.72_18237.32.wav'
p662
(lp663
I0
aI9
asS'c15_16_19875.45_19876.05.wav'
p664
(lp665
I0
aI20
asS'C25_08_21259.19_21259.79.wav'
p666
(lp667
I0
aI22
asS'15_16_43927.86_43928.79.wav'
p668
(lp669
I0
aI22
asS'23_15_56408.08_56408.77.wav'
p670
(lp671
I0
aI22
asS'C25_08_23723.55_23724.39.wav'
p672
(lp673
I0
aI22
asS'04_08_27117.87_27118.63.wav'
p674
(lp675
I0
aI11
asS'C25_08_16598.68_16600.83.wav'
p676
(lp677
I0
aI22
asS'C25_08_40093.88_40094.81.wav'
p678
(lp679
I0
aI9
asS'23_15_19944.41_19945.31.wav'
p680
(lp681
I0
aI22
asS'C25_08_24405.84_24407.91.wav'
p682
(lp683
I0
aI22
asS'C25_08_511.62_512.61.wav'
p684
(lp685
I0
aI9
asS'15_16_32178.67_32179.41.wav'
p686
(lp687
I0
aI0
asS'c15_16_33706.54_33707.96.wav'
p688
(lp689
I0
aI22
asS'c22_15_8242640.0_8243440.0.wav'
p690
(lp691
I0
aI22
asS'23_15_26158.68_26159.7.wav'
p692
(lp693
I0
aI11
asS'c22_15_50015490.0_50016090.0.wav'
p694
(lp695
I0
aI22
asS'15_16_42611.4_42612.0.wav'
p696
(lp697
I0
aI22
asS'c15_16_6401.08_6402.01.wav'
p698
(lp699
I0
aI11
asS'04_08_12334.62_12336.98.wav'
p700
(lp701
I0
aI20
asS'04_08_17185.09_17185.69.wav'
p702
(lp703
I0
aI9
asS'c22_15_51264120.0_51264860.0.wav'
p704
(lp705
I0
aI22
asS'23_15_1445.87_1447.18.wav'
p706
(lp707
I0
aI22
asS'c15_16_14776.28_14778.03.wav'
p708
(lp709
I0
aI11
asS'04_08_13909.21_13910.89.wav'
p710
(lp711
I0
aI11
asS'04_08_46675.67_46676.84.wav'
p712
(lp713
I0
aI18
asS'04_08_35834.43_35835.03.wav'
p714
(lp715
I0
aI18
asS'04_08_39608.89_39610.19.wav'
p716
(lp717
I0
aI22
asS'04_08_48047.37_48047.97.wav'
p718
(lp719
I0
aI22
asS'c15_16_3773.47_3776.25.wav'
p720
(lp721
I0
aI11
asS'23_15_10523.73_10524.33.wav'
p722
(lp723
I0
aI22
asS'c15_16_19585.97_19586.57.wav'
p724
(lp725
I0
aI18
asS'04_08_28337.32_28338.97.wav'
p726
(lp727
I0
aI20
asS'c15_16_26315.87_26316.71.wav'
p728
(lp729
I0
aI20
asS'c22_15_55337170.0_55337770.0.wav'
p730
(lp731
I0
aI22
asS'15_16_41415.7_41416.51.wav'
p732
(lp733
I0
aI20
asS'04_08_19489.03_19489.67.wav'
p734
(lp735
I0
aI27
asS'c15_16_34228.52_34230.65.wav'
p736
(lp737
I0
aI11
asS'23_15_40849.42_40850.04.wav'
p738
(lp739
I0
aI22
asS'c15_16_5708.95_5709.66.wav'
p740
(lp741
I0
aI18
asS'04_08_19339.88_19340.49.wav'
p742
(lp743
I0
aI9
asS'23_15_16125.1_16127.27.wav'
p744
(lp745
I0
aI20
asS'15_16_1123.68_1124.37.wav'
p746
(lp747
I0
aI11
asS'c15_16_33524.57_33527.5.wav'
p748
(lp749
I0
aI22
asS'23_15_29759.77_29760.77.wav'
p750
(lp751
I0
aI20
asS'c22_15_45242860.0_45243670.0.wav'
p752
(lp753
I0
aI11
asS'c22_15_49144120.0_49145340.0.wav'
p754
(lp755
I0
aI11
asS'04_08_13709.63_13710.69.wav'
p756
(lp757
I0
aI11
asS'c15_16_22236.48_22237.2.wav'
p758
(lp759
I0
aI18
asS'C25_08_44340.01_44342.38.wav'
p760
(lp761
I0
aI0
asS'c15_16_26780.36_26781.24.wav'
p762
(lp763
I0
aI0
asS'c22_15_47391910.0_47393020.0.wav'
p764
(lp765
I0
aI11
asS'C25_08_1015.51_1018.37.wav'
p766
(lp767
I0
aI18
asS'15_16_42048.55_42050.94.wav'
p768
(lp769
I0
aI20
asS'04_08_46863.38_46864.38.wav'
p770
(lp771
I0
aI11
asS'15_16_2108.11_2108.86.wav'
p772
(lp773
I0
aI22
asS'23_15_10715.41_10717.41.wav'
p774
(lp775
I0
aI11
asS'c22_15_51336570.0_51337180.0.wav'
p776
(lp777
I0
aI11
asS'C25_08_15301.92_15302.53.wav'
p778
(lp779
I0
aI29
asS'15_16_36771.32_36772.99.wav'
p780
(lp781
I0
aI0
asS'15_16_34458.77_34460.51.wav'
p782
(lp783
I0
aI9
asS'04_08_35744.77_35745.37.wav'
p784
(lp785
I0
aI11
asS'C25_08_9854.11_9856.45.wav'
p786
(lp787
I0
aI20
asS'c22_15_45229930.0_45231140.0.wav'
p788
(lp789
I0
aI11
asS'c15_16_21261.21_21261.91.wav'
p790
(lp791
I0
aI11
asS'c15_16_21196.04_21196.67.wav'
p792
(lp793
I0
aI11
asS'04_08_29718.35_29719.2.wav'
p794
(lp795
I0
aI11
asS'15_16_45586.33_45586.99.wav'
p796
(lp797
I0
aI11
asS'23_15_45609.01_45609.62.wav'
p798
(lp799
I0
aI31
asS'c15_16_14852.87_14853.51.wav'
p800
(lp801
I0
aI20
asS'C25_08_24837.78_24841.21.wav'
p802
(lp803
I0
aI11
asS'15_16_11814.86_11815.53.wav'
p804
(lp805
I0
aI9
asS'04_08_34870.91_34871.57.wav'
p806
(lp807
I0
aI9
asS'c22_15_57532370.0_57534280.0.wav'
p808
(lp809
I0
aI20
asS'C25_08_29844.88_29845.68.wav'
p810
(lp811
I0
aI20
asS'23_15_18421.01_18423.73.wav'
p812
(lp813
I0
aI22
asS'15_16_40320.0_40320.62.wav'
p814
(lp815
I0
aI9
asS'c22_15_51497920.0_51501030.0.wav'
p816
(lp817
I0
aI11
asS'c15_16_10620.43_10621.03.wav'
p818
(lp819
I0
aI11
asS'c15_16_19592.95_19593.72.wav'
p820
(lp821
I0
aI20
asS'c15_16_27578.2_27579.39.wav'
p822
(lp823
I0
aI22
asS'C25_08_45168.05_45169.03.wav'
p824
(lp825
I0
aI22
asS'C25_08_28128.12_28128.8.wav'
p826
(lp827
I0
aI11
asS'04_08_8769.04_8769.64.wav'
p828
(lp829
I0
aI22
asS'c15_16_22181.21_22181.81.wav'
p830
(lp831
I0
aI22
asS'23_15_16984.61_16985.42.wav'
p832
(lp833
I0
aI11
asS'C25_08_3975.29_3975.89.wav'
p834
(lp835
I0
aI0
asS'23_15_56189.93_56192.45.wav'
p836
(lp837
I0
aI22
asS'15_16_246.99_248.88.wav'
p838
(lp839
I0
aI11
asS'c15_16_33726.38_33727.65.wav'
p840
(lp841
I0
aI20
asS'04_08_35739.87_35740.47.wav'
p842
(lp843
I0
aI20
asS'C25_08_4502.37_4503.06.wav'
p844
(lp845
I0
aI22
asS'15_16_46960.45_46962.34.wav'
p846
(lp847
I0
aI31
asS'c22_15_54166660.0_54167260.0.wav'
p848
(lp849
I0
aI9
asS'c22_15_56269860.0_56270460.0.wav'
p850
(lp851
I0
aI11
asS'c22_15_50619560.0_50620160.0.wav'
p852
(lp853
I0
aI11
asS'23_15_6432.82_6433.82.wav'
p854
(lp855
I0
aI11
asS'C25_08_6617.14_6619.12.wav'
p856
(lp857
I0
aI11
asS'15_16_10072.76_10073.36.wav'
p858
(lp859
I0
aI11
asS'15_16_36961.74_36963.48.wav'
p860
(lp861
I0
aI11
asS'c15_16_10848.54_10849.83.wav'
p862
(lp863
I0
aI20
asS'c15_16_34456.49_34457.19.wav'
p864
(lp865
I0
aI11
asS'15_16_38183.04_38183.74.wav'
p866
(lp867
I0
aI11
asS'c22_15_184120.0_184970.0.wav'
p868
(lp869
I0
aI11
asS'23_15_23759.91_23761.5.wav'
p870
(lp871
I0
aI22
asS'c15_16_19419.65_19420.36.wav'
p872
(lp873
I0
aI9
asS'23_15_1031.98_1032.73.wav'
p874
(lp875
I0
aI11
asS'c15_16_3602.02_3603.82.wav'
p876
(lp877
I0
aI20
asS'23_15_18039.8_18040.4.wav'
p878
(lp879
I0
aI11
asS'c15_16_33315.73_33316.33.wav'
p880
(lp881
I0
aI20
asS'c22_15_57234950.0_57235550.0.wav'
p882
(lp883
I0
aI11
asS'C25_08_3503.8_3505.93.wav'
p884
(lp885
I0
aI22
asS'C25_08_55459.69_55460.29.wav'
p886
(lp887
I0
aI11
asS'23_15_46584.52_46585.33.wav'
p888
(lp889
I0
aI31
asS'C25_08_25120.63_25121.29.wav'
p890
(lp891
I0
aI11
asS'23_15_18405.68_18406.38.wav'
p892
(lp893
I0
aI22
asS'C25_08_44902.89_44903.89.wav'
p894
(lp895
I0
aI11
asS'15_16_19207.94_19208.6.wav'
p896
(lp897
I0
aI0
asS'C25_08_24911.04_24911.64.wav'
p898
(lp899
I0
aI11
asS'c22_15_56454980.0_56457220.0.wav'
p900
(lp901
I0
aI31
asS'04_08_19479.27_19479.87.wav'
p902
(lp903
I0
aI11
asS'C25_08_39321.5_39322.1.wav'
p904
(lp905
I0
aI22
asS'04_08_29275.38_29276.2.wav'
p906
(lp907
I0
aI9
asS'C25_08_30009.54_30010.14.wav'
p908
(lp909
I0
aI11
asS'04_08_41805.21_41809.01.wav'
p910
(lp911
I0
aI22
asS'23_15_48872.06_48872.9.wav'
p912
(lp913
I0
aI20
asS'23_15_46564.91_46565.54.wav'
p914
(lp915
I0
aI33
asS'15_16_46269.82_46273.96.wav'
p916
(lp917
I0
aI20
asS'04_08_43413.23_43415.06.wav'
p918
(lp919
I0
aI20
asS'c15_16_30900.4_30901.0.wav'
p920
(lp921
I0
aI18
asS'C25_08_25308.02_25308.76.wav'
p922
(lp923
I0
aI11
asS'C25_08_39816.81_39817.41.wav'
p924
(lp925
I0
aI22
asS'23_15_103.49_106.78.wav'
p926
(lp927
I0
aI11
asS'15_16_9123.74_9124.39.wav'
p928
(lp929
I0
aI11
asS'C25_08_24809.85_24810.73.wav'
p930
(lp931
I0
aI11
asS'23_15_23946.19_23949.59.wav'
p932
(lp933
I0
aI11
asS'c15_16_5217.77_5218.57.wav'
p934
(lp935
I0
aI0
asS'c15_16_31228.62_31229.74.wav'
p936
(lp937
I0
aI11
asS'15_16_38272.78_38273.42.wav'
p938
(lp939
I0
aI22
asS'23_15_13215.66_13217.1.wav'
p940
(lp941
I0
aI11
asS'c15_16_20774.83_20775.43.wav'
p942
(lp943
I0
aI22
asS'c15_16_11485.88_11486.68.wav'
p944
(lp945
I0
aI33
asS'15_16_42514.96_42515.84.wav'
p946
(lp947
I0
aI11
asS'15_16_37948.19_37948.8.wav'
p948
(lp949
I0
aI11
asS'04_08_43422.37_43422.97.wav'
p950
(lp951
I0
aI22
asS'04_08_47840.49_47841.52.wav'
p952
(lp953
I0
aI31
asS'04_08_43562.58_43563.18.wav'
p954
(lp955
I0
aI11
asS'04_08_46677.64_46679.25.wav'
p956
(lp957
I0
aI18
asS'c22_15_54224860.0_54226630.0.wav'
p958
(lp959
I0
aI20
asS'c15_16_26045.92_26048.85.wav'
p960
(lp961
I0
aI31
asS'23_15_16543.76_16545.87.wav'
p962
(lp963
I0
aI31
asS'04_08_46523.41_46524.35.wav'
p964
(lp965
I0
aI22
asS'15_16_3743.3_3745.25.wav'
p966
(lp967
I0
aI33
asS'15_16_40389.08_40390.03.wav'
p968
(lp969
I0
aI20
asS'15_16_10125.92_10126.59.wav'
p970
(lp971
I0
aI20
asS'C25_08_18152.65_18153.89.wav'
p972
(lp973
I0
aI11
asS'c15_16_11177.52_11178.12.wav'
p974
(lp975
I0
aI11
asS'04_08_26322.63_26323.26.wav'
p976
(lp977
I0
aI20
asS'15_16_40117.73_40118.55.wav'
p978
(lp979
I0
aI9
asS'15_16_31519.29_31519.89.wav'
p980
(lp981
I0
aI20
asS'c22_15_50859550.0_50860550.0.wav'
p982
(lp983
I0
aI9
asS'c22_15_53926310.0_53928640.0.wav'
p984
(lp985
I0
aI11
asS'c22_15_50617010.0_50617630.0.wav'
p986
(lp987
I0
aI22
asS'c22_15_606580.0_607180.0.wav'
p988
(lp989
I0
aI22
asS'04_08_24900.91_24901.71.wav'
p990
(lp991
I0
aI9
asS'c15_16_13712.39_13713.14.wav'
p992
(lp993
I0
aI22
asS'04_08_29500.29_29501.15.wav'
p994
(lp995
I0
aI20
asS'c22_15_53268580.0_53270820.0.wav'
p996
(lp997
I0
aI22
asS'c15_16_3598.88_3599.48.wav'
p998
(lp999
I0
aI11
asS'c22_15_51021660.0_51022740.0.wav'
p1000
(lp1001
I0
aI0
asS'c22_15_51571660.0_51573460.0.wav'
p1002
(lp1003
I0
aI20
asS'c22_15_46071740.0_46072360.0.wav'
p1004
(lp1005
I0
aI9
asS'c15_16_1821.52_1822.18.wav'
p1006
(lp1007
I0
aI22
asS'15_16_46232.58_46237.22.wav'
p1008
(lp1009
I0
aI20
asS'15_16_1254.85_1256.05.wav'
p1010
(lp1011
I0
aI11
asS'c15_16_1501.16_1502.74.wav'
p1012
(lp1013
I0
aI18
asS'04_08_26290.76_26291.43.wav'
p1014
(lp1015
I0
aI18
asS'c22_15_55085660.0_55086410.0.wav'
p1016
(lp1017
I0
aI31
asS'04_08_42565.09_42566.43.wav'
p1018
(lp1019
I0
aI9
asS'C25_08_22409.81_22410.96.wav'
p1020
(lp1021
I0
aI11
asS'23_15_543.0_545.42.wav'
p1022
(lp1023
I0
aI22
asS'23_15_45481.59_45482.19.wav'
p1024
(lp1025
I0
aI11
asS'04_08_47431.93_47432.96.wav'
p1026
(lp1027
I0
aI20
asS'23_15_1496.66_1497.26.wav'
p1028
(lp1029
I0
aI18
asS'C25_08_12474.75_12475.65.wav'
p1030
(lp1031
I0
aI11
asS'04_08_25569.54_25570.14.wav'
p1032
(lp1033
I0
aI11
asS'04_08_1802.43_1803.21.wav'
p1034
(lp1035
I0
aI27
asS'c22_15_51155790.0_51157310.0.wav'
p1036
(lp1037
I0
aI22
asS'C25_08_18731.36_18732.39.wav'
p1038
(lp1039
I0
aI11
asS'C25_08_21354.25_21354.91.wav'
p1040
(lp1041
I0
aI11
asS'C25_08_20874.23_20875.75.wav'
p1042
(lp1043
I0
aI22
asS'C25_08_49331.75_49332.35.wav'
p1044
(lp1045
I0
aI22
asS'15_16_2851.99_2852.97.wav'
p1046
(lp1047
I0
aI22
asS'c15_16_34839.51_34840.4.wav'
p1048
(lp1049
I0
aI22
asS'23_15_12842.28_12843.91.wav'
p1050
(lp1051
I0
aI11
asS'15_16_32301.15_32301.75.wav'
p1052
(lp1053
I0
aI22
asS'15_16_38666.42_38667.11.wav'
p1054
(lp1055
I0
aI22
asS'c22_15_56328140.0_56328740.0.wav'
p1056
(lp1057
I0
aI11
asS'04_08_46933.77_46935.11.wav'
p1058
(lp1059
I0
aI0
asS'c22_15_53736030.0_53738060.0.wav'
p1060
(lp1061
I0
aI22
asS'04_08_47710.72_47711.66.wav'
p1062
(lp1063
I0
aI9
asS'04_08_30135.14_30135.74.wav'
p1064
(lp1065
I0
aI22
asS'c15_16_34766.26_34767.66.wav'
p1066
(lp1067
I0
aI11
asS'23_15_39014.72_39015.85.wav'
p1068
(lp1069
I0
aI20
asS'c15_16_52738.8_52739.7.wav'
p1070
(lp1071
I0
aI33
asS'c15_16_7186.27_7186.87.wav'
p1072
(lp1073
I0
aI22
asS'C25_08_20797.77_20799.04.wav'
p1074
(lp1075
I0
aI20
asS'15_16_11773.85_11775.02.wav'
p1076
(lp1077
I0
aI22
asS'23_15_39284.94_39285.56.wav'
p1078
(lp1079
I0
aI22
asS'04_08_33709.02_33709.67.wav'
p1080
(lp1081
I0
aI22
asS'04_08_47445.14_47445.96.wav'
p1082
(lp1083
I0
aI31
asS'15_16_33020.83_33022.11.wav'
p1084
(lp1085
I0
aI11
asS'c15_16_9258.66_9259.26.wav'
p1086
(lp1087
I0
aI11
asS'15_16_8232.61_8233.3.wav'
p1088
(lp1089
I0
aI9
asS'04_08_5227.44_5228.05.wav'
p1090
(lp1091
I0
aI18
asS'c15_16_23316.41_23317.01.wav'
p1092
(lp1093
I0
aI11
asS'23_15_26083.46_26086.4.wav'
p1094
(lp1095
I0
aI11
asS'C25_08_24706.7_24708.35.wav'
p1096
(lp1097
I0
aI11
asS'c22_15_52106370.0_52107100.0.wav'
p1098
(lp1099
I0
aI11
asS'C25_08_608.05_608.81.wav'
p1100
(lp1101
I0
aI11
asS'15_16_40190.74_40191.4.wav'
p1102
(lp1103
I0
aI20
asS'c15_16_26943.68_26944.81.wav'
p1104
(lp1105
I0
aI22
asS'23_15_45140.44_45141.04.wav'
p1106
(lp1107
I0
aI22
asS'04_08_17241.21_17241.97.wav'
p1108
(lp1109
I0
aI11
asS'15_16_3375.5_3376.51.wav'
p1110
(lp1111
I0
aI22
asS'c22_15_48767170.0_48767770.0.wav'
p1112
(lp1113
I0
aI22
asS'c22_15_50602890.0_50605920.0.wav'
p1114
(lp1115
I0
aI22
asS'C25_08_16495.75_16496.35.wav'
p1116
(lp1117
I0
aI33
asS'C25_08_20688.93_20690.84.wav'
p1118
(lp1119
I0
aI9
asS'23_15_2492.98_2493.72.wav'
p1120
(lp1121
I0
aI22
asS'15_16_10044.22_10045.23.wav'
p1122
(lp1123
I0
aI22
asS'c15_16_34697.69_34698.8.wav'
p1124
(lp1125
I0
aI11
asS'c22_15_51259400.0_51260370.0.wav'
p1126
(lp1127
I0
aI11
asS'23_15_28236.09_28237.16.wav'
p1128
(lp1129
I0
aI20
asS'c22_15_53148800.0_53149480.0.wav'
p1130
(lp1131
I0
aI20
asS'c15_16_21696.45_21699.16.wav'
p1132
(lp1133
I0
aI22
asS'C25_08_21119.22_21121.03.wav'
p1134
(lp1135
I0
aI11
asS'c22_15_43257300.0_43259200.0.wav'
p1136
(lp1137
I0
aI20
asS'C25_08_1205.33_1205.93.wav'
p1138
(lp1139
I0
aI22
asS'c22_15_48319040.0_48319750.0.wav'
p1140
(lp1141
I0
aI11
asS'04_08_44660.8_44661.65.wav'
p1142
(lp1143
I0
aI22
asS'c15_16_26658.0_26659.04.wav'
p1144
(lp1145
I0
aI20
asS'04_08_19546.89_19548.03.wav'
p1146
(lp1147
I0
aI11
asS'23_15_34142.07_34142.85.wav'
p1148
(lp1149
I0
aI11
asS'c22_15_57144380.0_57144980.0.wav'
p1150
(lp1151
I0
aI20
asS'c22_15_56380070.0_56380680.0.wav'
p1152
(lp1153
I0
aI20
asS'c15_16_34484.9_34487.5.wav'
p1154
(lp1155
I0
aI20
asS'C25_08_28287.52_28288.12.wav'
p1156
(lp1157
I0
aI22
asS'C25_08_10148.79_10149.39.wav'
p1158
(lp1159
I0
aI11
asS'23_15_56327.16_56327.96.wav'
p1160
(lp1161
I0
aI11
asS'15_16_14170.13_14170.73.wav'
p1162
(lp1163
I0
aI22
asS'c22_15_57090700.0_57094050.0.wav'
p1164
(lp1165
I0
aI22
asS'C25_08_21241.66_21242.31.wav'
p1166
(lp1167
I0
aI11
asS'c15_16_35002.86_35003.63.wav'
p1168
(lp1169
I0
aI20
asS'c22_15_53824550.0_53825440.0.wav'
p1170
(lp1171
I0
aI22
asS'c15_16_19865.55_19866.47.wav'
p1172
(lp1173
I0
aI20
asS'04_08_28319.5_28323.63.wav'
p1174
(lp1175
I0
aI33
asS'c15_16_13129.57_13130.17.wav'
p1176
(lp1177
I0
aI9
asS'c15_16_23698.7_23699.37.wav'
p1178
(lp1179
I0
aI20
asS'15_16_6806.82_6807.42.wav'
p1180
(lp1181
I0
aI20
asS'23_15_38996.42_38997.42.wav'
p1182
(lp1183
I0
aI20
asS'04_08_30919.95_30921.13.wav'
p1184
(lp1185
I0
aI22
asS'c22_15_51195750.0_51196970.0.wav'
p1186
(lp1187
I0
aI20
asS'c22_15_48814930.0_48815930.0.wav'
p1188
(lp1189
I0
aI22
asS'C25_08_56095.24_56096.67.wav'
p1190
(lp1191
I0
aI11
asS'C25_08_30884.31_30885.33.wav'
p1192
(lp1193
I0
aI11
asS'C25_08_48665.74_48666.4.wav'
p1194
(lp1195
I0
aI11
asS'C25_08_6747.14_6751.34.wav'
p1196
(lp1197
I0
aI20
asS'04_08_28923.78_28925.07.wav'
p1198
(lp1199
I0
aI22
asS'c22_15_48806120.0_48806850.0.wav'
p1200
(lp1201
I0
aI11
asS'15_16_36662.85_36663.48.wav'
p1202
(lp1203
I0
aI9
asS'C25_08_9432.95_9433.57.wav'
p1204
(lp1205
I0
aI11
asS'c22_15_53212440.0_53213040.0.wav'
p1206
(lp1207
I0
aI22
asS'04_08_45312.25_45313.2.wav'
p1208
(lp1209
I0
aI22
asS'23_15_49174.53_49175.33.wav'
p1210
(lp1211
I0
aI22
asS'c22_15_57040350.0_57042370.0.wav'
p1212
(lp1213
I0
aI22
asS'c22_15_45297450.0_45298050.0.wav'
p1214
(lp1215
I0
aI20
asS'23_15_2334.95_2336.51.wav'
p1216
(lp1217
I0
aI11
asS'04_08_30534.69_30537.12.wav'
p1218
(lp1219
I0
aI0
asS'c15_16_26271.94_26272.54.wav'
p1220
(lp1221
I0
aI20
asS'23_15_4746.74_4747.37.wav'
p1222
(lp1223
I0
aI11
asS'04_08_13922.03_13922.86.wav'
p1224
(lp1225
I0
aI20
asS'04_08_39992.4_39993.38.wav'
p1226
(lp1227
I0
aI20
asS'23_15_10746.48_10748.35.wav'
p1228
(lp1229
I0
aI22
asS'c15_16_2279.61_2280.25.wav'
p1230
(lp1231
I0
aI9
asS'04_08_8536.32_8537.29.wav'
p1232
(lp1233
I0
aI11
asS'04_08_47964.09_47965.15.wav'
p1234
(lp1235
I0
aI22
asS'23_15_18498.28_18499.32.wav'
p1236
(lp1237
I0
aI22
asS'C25_08_29410.44_29411.92.wav'
p1238
(lp1239
I0
aI31
asS'15_16_15972.96_15973.57.wav'
p1240
(lp1241
I0
aI33
asS'23_15_26573.3_26573.91.wav'
p1242
(lp1243
I0
aI11
asS'04_08_3666.02_3666.62.wav'
p1244
(lp1245
I0
aI11
asS'c22_15_57394080.0_57395340.0.wav'
p1246
(lp1247
I0
aI22
asS'04_08_30181.52_30184.82.wav'
p1248
(lp1249
I0
aI11
asS'15_16_2174.33_2174.93.wav'
p1250
(lp1251
I0
aI22
asS'c15_16_25037.19_25037.79.wav'
p1252
(lp1253
I0
aI11
asS'04_08_26004.09_26004.69.wav'
p1254
(lp1255
I0
aI22
asS'c22_15_51115630.0_51116550.0.wav'
p1256
(lp1257
I0
aI31
asS'15_16_41368.27_41369.27.wav'
p1258
(lp1259
I0
aI18
asS'04_08_18929.18_18929.79.wav'
p1260
(lp1261
I0
aI11
asS'c15_16_21729.24_21729.92.wav'
p1262
(lp1263
I0
aI11
asS'C25_08_27593.37_27594.39.wav'
p1264
(lp1265
I0
aI31
asS'04_08_29239.39_29240.02.wav'
p1266
(lp1267
I0
aI11
asS'c15_16_26114.45_26115.48.wav'
p1268
(lp1269
I0
aI9
asS'04_08_32177.16_32180.84.wav'
p1270
(lp1271
I0
aI11
asS'c22_15_50788440.0_50792140.0.wav'
p1272
(lp1273
I0
aI33
asS'c22_15_166600.0_167380.0.wav'
p1274
(lp1275
I0
aI11
asS'c22_15_45671370.0_45671970.0.wav'
p1276
(lp1277
I0
aI11
asS'C25_08_21009.73_21010.63.wav'
p1278
(lp1279
I0
aI22
asS'C25_08_44886.9_44888.52.wav'
p1280
(lp1281
I0
aI22
asS'15_16_36425.48_36426.22.wav'
p1282
(lp1283
I0
aI22
asS'c22_15_52963940.0_52964570.0.wav'
p1284
(lp1285
I0
aI11
asS'c22_15_57160830.0_57162180.0.wav'
p1286
(lp1287
I0
aI11
asS'04_08_46731.97_46732.57.wav'
p1288
(lp1289
I0
aI22
asS'c22_15_48084020.0_48084940.0.wav'
p1290
(lp1291
I0
aI22
asS'23_15_48030.53_48031.54.wav'
p1292
(lp1293
I0
aI18
asS'c22_15_57086560.0_57088900.0.wav'
p1294
(lp1295
I0
aI20
asS'23_15_21825.3_21825.91.wav'
p1296
(lp1297
I0
aI20
asS'04_08_17933.46_17935.24.wav'
p1298
(lp1299
I0
aI22
asS'c22_15_56300760.0_56301370.0.wav'
p1300
(lp1301
I0
aI18
asS'15_16_37366.97_37367.79.wav'
p1302
(lp1303
I0
aI20
asS'04_08_29898.51_29899.47.wav'
p1304
(lp1305
I0
aI33
asS'15_16_10187.87_10188.66.wav'
p1306
(lp1307
I0
aI29
asS'23_15_31449.84_31450.83.wav'
p1308
(lp1309
I0
aI20
asS'c15_16_9320.84_9323.2.wav'
p1310
(lp1311
I0
aI11
asS'15_16_2179.67_2180.27.wav'
p1312
(lp1313
I0
aI11
asS'15_16_4980.48_4981.08.wav'
p1314
(lp1315
I0
aI33
asS'c15_16_34180.4_34181.2.wav'
p1316
(lp1317
I0
aI20
asS'23_15_12585.49_12586.14.wav'
p1318
(lp1319
I0
aI18
asS'C25_08_44423.65_44424.47.wav'
p1320
(lp1321
I0
aI11
asS'23_15_7485.48_7486.17.wav'
p1322
(lp1323
I0
aI31
asS'C25_08_21506.89_21507.49.wav'
p1324
(lp1325
I0
aI31
asS'c22_15_52323980.0_52324610.0.wav'
p1326
(lp1327
I0
aI18
asS'23_15_18568.66_18569.77.wav'
p1328
(lp1329
I0
aI11
asS'c15_16_20138.81_20140.6.wav'
p1330
(lp1331
I0
aI11
asS'C25_08_15641.0_15641.72.wav'
p1332
(lp1333
I0
aI20
asS'15_16_41339.03_41340.95.wav'
p1334
(lp1335
I0
aI18
asS'04_08_32043.05_32043.65.wav'
p1336
(lp1337
I0
aI11
asS'04_08_26224.27_26228.25.wav'
p1338
(lp1339
I0
aI11
asS'c15_16_9448.61_9449.51.wav'
p1340
(lp1341
I0
aI18
asS'C25_08_18646.2_18647.48.wav'
p1342
(lp1343
I0
aI11
asS'c15_16_9518.3_9519.31.wav'
p1344
(lp1345
I0
aI11
asS'23_15_56193.25_56194.88.wav'
p1346
(lp1347
I0
aI11
asS'23_15_14785.27_14790.46.wav'
p1348
(lp1349
I0
aI11
asS'23_15_46967.76_46968.44.wav'
p1350
(lp1351
I0
aI22
asS'23_15_7279.48_7280.14.wav'
p1352
(lp1353
I0
aI11
asS'04_08_16483.17_16483.79.wav'
p1354
(lp1355
I0
aI22
asS'04_08_18920.4_18921.0.wav'
p1356
(lp1357
I0
aI11
asS'c15_16_6847.18_6847.78.wav'
p1358
(lp1359
I0
aI11
asS'04_08_19514.62_19515.95.wav'
p1360
(lp1361
I0
aI22
asS'23_15_21602.43_21603.43.wav'
p1362
(lp1363
I0
aI9
asS'04_08_18551.8_18553.27.wav'
p1364
(lp1365
I0
aI11
asS'C25_08_27207.51_27208.97.wav'
p1366
(lp1367
I0
aI11
asS'04_08_32002.6_32003.78.wav'
p1368
(lp1369
I0
aI11
asS'C25_08_24325.02_24325.63.wav'
p1370
(lp1371
I0
aI22
asS'23_15_14161.17_14162.95.wav'
p1372
(lp1373
I0
aI22
asS'04_08_47672.37_47673.72.wav'
p1374
(lp1375
I0
aI20
asS'23_15_4679.86_4681.33.wav'
p1376
(lp1377
I0
aI22
asS'c22_15_50704530.0_50705400.0.wav'
p1378
(lp1379
I0
aI20
asS'04_08_2342.57_2343.57.wav'
p1380
(lp1381
I0
aI20
asS'c22_15_8267050.0_8268050.0.wav'
p1382
(lp1383
I0
aI11
asS'15_16_2016.81_2017.67.wav'
p1384
(lp1385
I0
aI22
asS'23_15_38968.97_38970.92.wav'
p1386
(lp1387
I0
aI11
asS'C25_08_11344.15_11345.02.wav'
p1388
(lp1389
I0
aI22
asS'c22_15_2719210.0_2720280.0.wav'
p1390
(lp1391
I0
aI0
asS'c15_16_17793.26_17793.87.wav'
p1392
(lp1393
I0
aI11
asS'c22_15_53054030.0_53054630.0.wav'
p1394
(lp1395
I0
aI11
asS'c22_15_53478030.0_53478870.0.wav'
p1396
(lp1397
I0
aI20
asS'15_16_17213.27_17213.95.wav'
p1398
(lp1399
I0
aI22
asS'04_08_33971.58_33973.49.wav'
p1400
(lp1401
I0
aI11
asS'04_08_34037.32_34038.0.wav'
p1402
(lp1403
I0
aI22
asS'15_16_2023.33_2023.93.wav'
p1404
(lp1405
I0
aI22
asS'15_16_47016.65_47017.79.wav'
p1406
(lp1407
I0
aI11
asS'04_08_46478.41_46479.37.wav'
p1408
(lp1409
I0
aI22
asS'04_08_35846.29_35846.92.wav'
p1410
(lp1411
I0
aI9
asS'c22_15_53384510.0_53385160.0.wav'
p1412
(lp1413
I0
aI11
asS'C25_08_22871.62_22872.22.wav'
p1414
(lp1415
I0
aI11
asS'23_15_1992.16_1993.19.wav'
p1416
(lp1417
I0
aI11
asS'04_08_34055.15_34055.88.wav'
p1418
(lp1419
I0
aI22
asS'15_16_12798.29_12799.55.wav'
p1420
(lp1421
I0
aI22
asS'15_16_4094.99_4096.93.wav'
p1422
(lp1423
I0
aI22
asS'15_16_33277.72_33278.86.wav'
p1424
(lp1425
I0
aI18
asS'c22_15_40750610.0_40751470.0.wav'
p1426
(lp1427
I0
aI22
asS'c15_16_21980.23_21980.93.wav'
p1428
(lp1429
I0
aI11
asS'c22_15_48733590.0_48734230.0.wav'
p1430
(lp1431
I0
aI20
asS'23_15_56443.69_56444.51.wav'
p1432
(lp1433
I0
aI22
asS'15_16_45562.16_45562.76.wav'
p1434
(lp1435
I0
aI11
asS'c15_16_20188.93_20189.73.wav'
p1436
(lp1437
I0
aI20
asS'c22_15_55038040.0_55038640.0.wav'
p1438
(lp1439
I0
aI9
asS'c15_16_13949.44_13950.34.wav'
p1440
(lp1441
I0
aI9
asS'C25_08_27118.37_27118.99.wav'
p1442
(lp1443
I0
aI22
asS'23_15_10743.99_10745.65.wav'
p1444
(lp1445
I0
aI11
asS'c22_15_51243260.0_51244470.0.wav'
p1446
(lp1447
I0
aI22
asS'c15_16_21234.15_21234.75.wav'
p1448
(lp1449
I0
aI33
asS'04_08_1578.66_1580.62.wav'
p1450
(lp1451
I0
aI20
asS'15_16_37245.84_37246.62.wav'
p1452
(lp1453
I0
aI22
asS'c22_15_47237740.0_47238630.0.wav'
p1454
(lp1455
I0
aI22
asS'15_16_8767.41_8768.19.wav'
p1456
(lp1457
I0
aI11
asS'C25_08_45227.2_45227.82.wav'
p1458
(lp1459
I0
aI20
asS'23_15_6477.36_6477.99.wav'
p1460
(lp1461
I0
aI9
asS'c15_16_2919.04_2919.97.wav'
p1462
(lp1463
I0
aI11
asS'c22_15_50004360.0_50005140.0.wav'
p1464
(lp1465
I0
aI22
asS'15_16_4502.15_4504.14.wav'
p1466
(lp1467
I0
aI11
asS'04_08_43802.36_43803.03.wav'
p1468
(lp1469
I0
aI11
asS'04_08_30543.4_30544.32.wav'
p1470
(lp1471
I0
aI22
asS'C25_08_22543.51_22544.15.wav'
p1472
(lp1473
I0
aI11
asS'c15_16_7162.16_7163.16.wav'
p1474
(lp1475
I0
aI18
asS'23_15_48940.94_48942.46.wav'
p1476
(lp1477
I0
aI20
asS'C25_08_15514.09_15514.72.wav'
p1478
(lp1479
I0
aI0
asS'C25_08_9269.47_9270.07.wav'
p1480
(lp1481
I0
aI22
asS'04_08_13872.59_13873.73.wav'
p1482
(lp1483
I0
aI20
asS'C25_08_55879.43_55880.03.wav'
p1484
(lp1485
I0
aI22
asS'c22_15_1355090.0_1356010.0.wav'
p1486
(lp1487
I0
aI20
asS'c15_16_21169.23_21170.05.wav'
p1488
(lp1489
I0
aI11
asS'15_16_37068.09_37068.69.wav'
p1490
(lp1491
I0
aI22
asS'04_08_28856.61_28857.42.wav'
p1492
(lp1493
I0
aI18
asS'c22_15_56306430.0_56307430.0.wav'
p1494
(lp1495
I0
aI22
asS'C25_08_27343.6_27344.26.wav'
p1496
(lp1497
I0
aI33
asS'C25_08_13125.01_13125.84.wav'
p1498
(lp1499
I0
aI9
asS'15_16_4014.24_4014.84.wav'
p1500
(lp1501
I0
aI11
asS'c15_16_26702.45_26703.28.wav'
p1502
(lp1503
I0
aI22
asS'C25_08_9591.97_9593.94.wav'
p1504
(lp1505
I0
aI20
asS'c15_16_26531.27_26531.87.wav'
p1506
(lp1507
I0
aI0
asS'23_15_46688.24_46688.84.wav'
p1508
(lp1509
I0
aI11
asS'c15_16_520.9_521.5.wav'
p1510
(lp1511
I0
aI22
asS'23_15_56198.95_56201.31.wav'
p1512
(lp1513
I0
aI22
asS'c15_16_5616.47_5617.2.wav'
p1514
(lp1515
I0
aI9
asS'23_15_21670.99_21673.46.wav'
p1516
(lp1517
I0
aI22
asS'23_15_41589.92_41590.74.wav'
p1518
(lp1519
I0
aI20
asS'c15_16_19680.92_19681.97.wav'
p1520
(lp1521
I0
aI20
asS'23_15_48360.87_48361.52.wav'
p1522
(lp1523
I0
aI20
asS'04_08_8463.98_8464.71.wav'
p1524
(lp1525
I0
aI11
asS'C25_08_33125.48_33126.48.wav'
p1526
(lp1527
I0
aI18
asS'c22_15_54020680.0_54021280.0.wav'
p1528
(lp1529
I0
aI22
asS'c22_15_56289730.0_56292290.0.wav'
p1530
(lp1531
I0
aI11
asS'c15_16_10871.85_10872.45.wav'
p1532
(lp1533
I0
aI22
asS'23_15_9503.43_9504.03.wav'
p1534
(lp1535
I0
aI9
asS'15_16_39787.68_39789.19.wav'
p1536
(lp1537
I0
aI9
asS'04_08_19710.64_19711.24.wav'
p1538
(lp1539
I0
aI11
asS'C25_08_4512.23_4512.86.wav'
p1540
(lp1541
I0
aI20
asS'c22_15_51446770.0_51447400.0.wav'
p1542
(lp1543
I0
aI29
asS'15_16_42052.56_42053.16.wav'
p1544
(lp1545
I0
aI22
asS'15_16_17288.61_17289.22.wav'
p1546
(lp1547
I0
aI11
asS'04_08_25877.9_25879.02.wav'
p1548
(lp1549
I0
aI11
asS'15_16_42795.43_42796.11.wav'
p1550
(lp1551
I0
aI11
asS'C25_08_29978.92_29979.53.wav'
p1552
(lp1553
I0
aI22
asS'23_15_23135.42_23136.28.wav'
p1554
(lp1555
I0
aI11
asS'C25_08_14185.81_14186.81.wav'
p1556
(lp1557
I0
aI9
asS'C25_08_12062.49_12063.09.wav'
p1558
(lp1559
I0
aI9
asS'C25_08_4085.58_4086.73.wav'
p1560
(lp1561
I0
aI20
asS'c22_15_52164750.0_52165450.0.wav'
p1562
(lp1563
I0
aI18
asS'C25_08_2967.43_2968.06.wav'
p1564
(lp1565
I0
aI11
asS'C25_08_21347.18_21349.05.wav'
p1566
(lp1567
I0
aI11
asS'15_16_2824.99_2825.59.wav'
p1568
(lp1569
I0
aI11
asS'15_16_31512.5_31513.13.wav'
p1570
(lp1571
I0
aI11
asS'15_16_41129.13_41129.73.wav'
p1572
(lp1573
I0
aI11
asS'c22_15_50779540.0_50781780.0.wav'
p1574
(lp1575
I0
aI22
asS'c15_16_20170.9_20171.71.wav'
p1576
(lp1577
I0
aI33
asS'15_16_8904.41_8905.66.wav'
p1578
(lp1579
I0
aI22
asS'04_08_45598.24_45599.08.wav'
p1580
(lp1581
I0
aI22
asS'c15_16_12015.1_12016.17.wav'
p1582
(lp1583
I0
aI9
asS'04_08_32495.83_32498.93.wav'
p1584
(lp1585
I0
aI22
asS'04_08_30896.61_30900.58.wav'
p1586
(lp1587
I0
aI11
asS'23_15_34599.72_34600.5.wav'
p1588
(lp1589
I0
aI11
asS'04_08_44449.17_44450.39.wav'
p1590
(lp1591
I0
aI11
asS'15_16_46710.66_46711.55.wav'
p1592
(lp1593
I0
aI20
asS'23_15_41188.74_41189.62.wav'
p1594
(lp1595
I0
aI9
asS'23_15_18438.82_18441.82.wav'
p1596
(lp1597
I0
aI22
asS'c22_15_726080.0_726710.0.wav'
p1598
(lp1599
I0
aI31
asS'C25_08_25437.49_25438.09.wav'
p1600
(lp1601
I0
aI18
asS'c22_15_48283470.0_48284090.0.wav'
p1602
(lp1603
I0
aI22
asS'15_16_39649.24_39650.42.wav'
p1604
(lp1605
I0
aI11
asS'23_15_28434.49_28435.36.wav'
p1606
(lp1607
I0
aI22
asS'15_16_17194.71_17195.37.wav'
p1608
(lp1609
I0
aI11
asS'C25_08_31000.48_31001.56.wav'
p1610
(lp1611
I0
aI11
asS'c15_16_44365.15_44365.75.wav'
p1612
(lp1613
I0
aI20
asS'04_08_16695.01_16695.77.wav'
p1614
(lp1615
I0
aI20
asS'23_15_13640.91_13641.51.wav'
p1616
(lp1617
I0
aI22
asS'15_16_84.5_85.1.wav'
p1618
(lp1619
I0
aI9
asS'15_16_3741.66_3742.29.wav'
p1620
(lp1621
I0
aI9
asS'23_15_786.07_787.26.wav'
p1622
(lp1623
I0
aI9
asS'15_16_17227.53_17228.54.wav'
p1624
(lp1625
I0
aI0
asS'04_08_8826.28_8827.13.wav'
p1626
(lp1627
I0
aI11
asS'15_16_31337.32_31338.26.wav'
p1628
(lp1629
I0
aI33
asS'15_16_30450.01_30450.61.wav'
p1630
(lp1631
I0
aI11
asS'c15_16_9645.36_9648.0.wav'
p1632
(lp1633
I0
aI9
asS'15_16_31216.51_31217.11.wav'
p1634
(lp1635
I0
aI22
asS'C25_08_57158.79_57160.11.wav'
p1636
(lp1637
I0
aI0
asS'15_16_8849.66_8850.72.wav'
p1638
(lp1639
I0
aI33
asS'c15_16_27582.91_27585.1.wav'
p1640
(lp1641
I0
aI22
asS'C25_08_1194.18_1194.93.wav'
p1642
(lp1643
I0
aI20
asS'23_15_56337.96_56338.57.wav'
p1644
(lp1645
I0
aI11
asS'04_08_28659.9_28661.14.wav'
p1646
(lp1647
I0
aI22
asS'15_16_4698.98_4699.98.wav'
p1648
(lp1649
I0
aI11
asS'c15_16_13371.91_13372.51.wav'
p1650
(lp1651
I0
aI11
asS'04_08_18401.53_18402.54.wav'
p1652
(lp1653
I0
aI11
asS'c22_15_52977030.0_52977750.0.wav'
p1654
(lp1655
I0
aI22
asS'04_08_46288.32_46289.52.wav'
p1656
(lp1657
I0
aI22
asS'23_15_2681.88_2682.89.wav'
p1658
(lp1659
I0
aI18
asS'04_08_17342.53_17343.83.wav'
p1660
(lp1661
I0
aI22
asS'23_15_30175.58_30178.49.wav'
p1662
(lp1663
I0
aI22
asS'15_16_46642.21_46642.81.wav'
p1664
(lp1665
I0
aI20
asS'C25_08_39358.04_39359.38.wav'
p1666
(lp1667
I0
aI11
asS'c15_16_14266.06_14267.06.wav'
p1668
(lp1669
I0
aI22
asS'c22_15_48259340.0_48261750.0.wav'
p1670
(lp1671
I0
aI20
asS'15_16_9464.06_9464.66.wav'
p1672
(lp1673
I0
aI20
asS'15_16_4932.12_4933.12.wav'
p1674
(lp1675
I0
aI22
asS'c22_15_46994130.0_46994730.0.wav'
p1676
(lp1677
I0
aI11
asS'15_16_39873.03_39874.94.wav'
p1678
(lp1679
I0
aI9
asS'23_15_8175.62_8177.48.wav'
p1680
(lp1681
I0
aI33
asS'15_16_19286.91_19287.51.wav'
p1682
(lp1683
I0
aI11
asS'c15_16_21001.28_21002.56.wav'
p1684
(lp1685
I0
aI11
asS'15_16_18639.16_18640.77.wav'
p1686
(lp1687
I0
aI11
asS'C25_08_39235.23_39236.77.wav'
p1688
(lp1689
I0
aI22
asS'15_16_36985.71_36986.39.wav'
p1690
(lp1691
I0
aI9
asS'15_16_1981.75_1982.35.wav'
p1692
(lp1693
I0
aI11
asS'C25_08_29323.84_29325.13.wav'
p1694
(lp1695
I0
aI18
asS'04_08_1033.21_1034.11.wav'
p1696
(lp1697
I0
aI20
asS'C25_08_55917.36_55922.85.wav'
p1698
(lp1699
I0
aI22
asS'23_15_27882.04_27882.96.wav'
p1700
(lp1701
I0
aI22
asS'15_16_4334.72_4335.43.wav'
p1702
(lp1703
I0
aI11
asS'c15_16_5609.32_5610.24.wav'
p1704
(lp1705
I0
aI22
asS'C25_08_28842.66_28843.26.wav'
p1706
(lp1707
I0
aI11
asS'23_15_1262.66_1263.4.wav'
p1708
(lp1709
I0
aI33
asS'23_15_27305.25_27306.09.wav'
p1710
(lp1711
I0
aI22
asS'15_16_9192.08_9194.39.wav'
p1712
(lp1713
I0
aI11
asS'c22_15_55769390.0_55769990.0.wav'
p1714
(lp1715
I0
aI11
asS'15_16_42499.66_42500.52.wav'
p1716
(lp1717
I0
aI22
asS'C25_08_4153.73_4154.73.wav'
p1718
(lp1719
I0
aI11
asS'c22_15_50917130.0_50917730.0.wav'
p1720
(lp1721
I0
aI18
asS'23_15_35769.39_35770.78.wav'
p1722
(lp1723
I0
aI20
asS'C25_08_16611.58_16613.04.wav'
p1724
(lp1725
I0
aI22
asS'c15_16_26177.64_26178.24.wav'
p1726
(lp1727
I0
aI18
asS'c15_16_19602.88_19603.81.wav'
p1728
(lp1729
I0
aI22
asS'15_16_114.27_115.05.wav'
p1730
(lp1731
I0
aI22
asS'C25_08_31446.65_31447.25.wav'
p1732
(lp1733
I0
aI22
asS'c15_16_35668.78_35669.78.wav'
p1734
(lp1735
I0
aI11
asS'23_15_56176.48_56177.6.wav'
p1736
(lp1737
I0
aI22
asS'04_08_2607.55_2608.16.wav'
p1738
(lp1739
I0
aI11
asS'c22_15_56879760.0_56880640.0.wav'
p1740
(lp1741
I0
aI22
asS'C25_08_418.73_419.33.wav'
p1742
(lp1743
I0
aI11
asS'23_15_31702.68_31703.36.wav'
p1744
(lp1745
I0
aI22
asS'23_15_20192.6_20193.48.wav'
p1746
(lp1747
I0
aI22
asS'15_16_8489.75_8490.81.wav'
p1748
(lp1749
I0
aI11
asS'C25_08_6556.81_6557.57.wav'
p1750
(lp1751
I0
aI11
asS'C25_08_9310.77_9311.7.wav'
p1752
(lp1753
I0
aI22
asS'15_16_43076.35_43076.95.wav'
p1754
(lp1755
I0
aI22
asS'c15_16_33765.49_33767.24.wav'
p1756
(lp1757
I0
aI9
asS'04_08_47442.37_47444.14.wav'
p1758
(lp1759
I0
aI9
asS'c15_16_22463.51_22464.4.wav'
p1760
(lp1761
I0
aI11
asS'c22_15_49912120.0_49913190.0.wav'
p1762
(lp1763
I0
aI18
asS'23_15_29624.36_29625.16.wav'
p1764
(lp1765
I0
aI9
asS'23_15_29784.76_29785.39.wav'
p1766
(lp1767
I0
aI11
asS'C25_08_56017.04_56019.14.wav'
p1768
(lp1769
I0
aI11
asS'15_16_45029.23_45029.83.wav'
p1770
(lp1771
I0
aI11
asS'C25_08_44383.86_44385.26.wav'
p1772
(lp1773
I0
aI11
asS'C25_08_27189.29_27189.9.wav'
p1774
(lp1775
I0
aI22
asS'04_08_28631.89_28634.45.wav'
p1776
(lp1777
I0
aI22
asS'c22_15_8274320.0_8275840.0.wav'
p1778
(lp1779
I0
aI22
asS'23_15_37964.29_37965.02.wav'
p1780
(lp1781
I0
aI22
asS'04_08_25896.36_25896.96.wav'
p1782
(lp1783
I0
aI20
asS'c15_16_6426.02_6426.63.wav'
p1784
(lp1785
I0
aI11
asS'04_08_35282.53_35283.15.wav'
p1786
(lp1787
I0
aI22
asS'15_16_34550.36_34551.1.wav'
p1788
(lp1789
I0
aI22
asS'c15_16_34231.57_34232.17.wav'
p1790
(lp1791
I0
aI20
asS'15_16_1022.02_1023.06.wav'
p1792
(lp1793
I0
aI33
asS'c22_15_45109130.0_45109730.0.wav'
p1794
(lp1795
I0
aI22
asS'c15_16_8946.75_8947.35.wav'
p1796
(lp1797
I0
aI0
asS'23_15_30841.44_30842.04.wav'
p1798
(lp1799
I0
aI11
asS'C25_08_28871.95_28873.05.wav'
p1800
(lp1801
I0
aI11
asS'c22_15_46881470.0_46883170.0.wav'
p1802
(lp1803
I0
aI33
asS'04_08_18531.13_18531.73.wav'
p1804
(lp1805
I0
aI22
asS'15_16_30006.76_30009.5.wav'
p1806
(lp1807
I0
aI22
asS'c15_16_19400.42_19401.02.wav'
p1808
(lp1809
I0
aI11
asS'C25_08_31624.48_31625.74.wav'
p1810
(lp1811
I0
aI18
asS'15_16_38417.67_38418.29.wav'
p1812
(lp1813
I0
aI27
asS'c22_15_45827860.0_45828800.0.wav'
p1814
(lp1815
I0
aI22
asS'c15_16_14379.13_14380.07.wav'
p1816
(lp1817
I0
aI22
asS'c22_15_1292540.0_1293860.0.wav'
p1818
(lp1819
I0
aI11
asS'C25_08_17291.29_17293.1.wav'
p1820
(lp1821
I0
aI11
asS'23_15_44645.87_44646.76.wav'
p1822
(lp1823
I0
aI29
asS'c22_15_382410.0_383760.0.wav'
p1824
(lp1825
I0
aI9
asS'15_16_42216.39_42217.93.wav'
p1826
(lp1827
I0
aI0
asS'15_16_42834.23_42834.86.wav'
p1828
(lp1829
I0
aI11
asS'c22_15_52560620.0_52561410.0.wav'
p1830
(lp1831
I0
aI11
asS'c15_16_3183.47_3184.28.wav'
p1832
(lp1833
I0
aI22
asS'c22_15_51125670.0_51126510.0.wav'
p1834
(lp1835
I0
aI22
asS'15_16_42495.57_42496.24.wav'
p1836
(lp1837
I0
aI33
asS'C25_08_24712.56_24713.16.wav'
p1838
(lp1839
I0
aI22
asS'15_16_10586.97_10587.57.wav'
p1840
(lp1841
I0
aI11
asS'23_15_56543.37_56544.01.wav'
p1842
(lp1843
I0
aI0
asS'c22_15_49191180.0_49191780.0.wav'
p1844
(lp1845
I0
aI11
asS'04_08_28831.77_28832.51.wav'
p1846
(lp1847
I0
aI11
asS'15_16_6638.65_6639.65.wav'
p1848
(lp1849
I0
aI9
asS'c15_16_30256.32_30259.12.wav'
p1850
(lp1851
I0
aI11
asS'04_08_33758.34_33760.64.wav'
p1852
(lp1853
I0
aI22
asS'C25_08_26871.15_26871.89.wav'
p1854
(lp1855
I0
aI11
asS'C25_08_28350.68_28351.34.wav'
p1856
(lp1857
I0
aI11
asS'23_15_12765.94_12766.54.wav'
p1858
(lp1859
I0
aI9
asS'23_15_7021.33_7021.93.wav'
p1860
(lp1861
I0
aI11
asS'04_08_40966.72_40969.26.wav'
p1862
(lp1863
I0
aI20
asS'04_08_41838.15_41838.75.wav'
p1864
(lp1865
I0
aI11
asS'c15_16_30374.36_30375.08.wav'
p1866
(lp1867
I0
aI11
asS'15_16_17393.65_17394.43.wav'
p1868
(lp1869
I0
aI11
asS'15_16_46648.56_46649.16.wav'
p1870
(lp1871
I0
aI11
asS'c15_16_9112.16_9112.84.wav'
p1872
(lp1873
I0
aI22
asS'c15_16_20226.09_20226.71.wav'
p1874
(lp1875
I0
aI9
asS'c22_15_53962970.0_53965560.0.wav'
p1876
(lp1877
I0
aI22
asS'23_15_46790.64_46791.24.wav'
p1878
(lp1879
I0
aI18
asS'15_16_44153.16_44153.87.wav'
p1880
(lp1881
I0
aI33
asS'15_16_41412.71_41413.79.wav'
p1882
(lp1883
I0
aI9
asS'c15_16_10527.59_10528.34.wav'
p1884
(lp1885
I0
aI22
asS'15_16_37430.0_37430.61.wav'
p1886
(lp1887
I0
aI22
asS'c22_15_51365830.0_51366620.0.wav'
p1888
(lp1889
I0
aI22
asS'23_15_41826.82_41827.42.wav'
p1890
(lp1891
I0
aI22
asS'04_08_7928.44_7929.26.wav'
p1892
(lp1893
I0
aI9
asS'c15_16_4723.5_4724.1.wav'
p1894
(lp1895
I0
aI33
asS'04_08_18684.65_18685.31.wav'
p1896
(lp1897
I0
aI11
asS'C25_08_39248.38_39249.31.wav'
p1898
(lp1899
I0
aI22
asS'c22_15_52319380.0_52320010.0.wav'
p1900
(lp1901
I0
aI20
asS'c22_15_45403730.0_45404820.0.wav'
p1902
(lp1903
I0
aI11
asS'23_15_20699.89_20701.97.wav'
p1904
(lp1905
I0
aI11
asS'23_15_15228.21_15229.65.wav'
p1906
(lp1907
I0
aI0
asS'C25_08_528.27_528.87.wav'
p1908
(lp1909
I0
aI33
asS'23_15_56638.94_56639.63.wav'
p1910
(lp1911
I0
aI20
asS'C25_08_7126.25_7127.18.wav'
p1912
(lp1913
I0
aI22
asS'23_15_41123.39_41124.39.wav'
p1914
(lp1915
I0
aI22
asS'23_15_22454.95_22457.49.wav'
p1916
(lp1917
I0
aI33
asS'04_08_47886.48_47887.53.wav'
p1918
(lp1919
I0
aI9
asS'23_15_22376.25_22377.04.wav'
p1920
(lp1921
I0
aI11
asS'c22_15_51105880.0_51106480.0.wav'
p1922
(lp1923
I0
aI11
asS'c22_15_53442830.0_53443450.0.wav'
p1924
(lp1925
I0
aI33
asS'C25_08_29026.79_29027.39.wav'
p1926
(lp1927
I0
aI22
asS'c15_16_17640.59_17641.39.wav'
p1928
(lp1929
I0
aI33
asS'23_15_10519.6_10520.2.wav'
p1930
(lp1931
I0
aI11
asS'04_08_25883.18_25883.78.wav'
p1932
(lp1933
I0
aI11
asS'15_16_47410.17_47411.05.wav'
p1934
(lp1935
I0
aI11
asS'04_08_16313.14_16313.75.wav'
p1936
(lp1937
I0
aI20
asS'C25_08_19130.55_19131.16.wav'
p1938
(lp1939
I0
aI22
asS'23_15_2838.72_2839.32.wav'
p1940
(lp1941
I0
aI22
asS'23_15_1405.14_1406.47.wav'
p1942
(lp1943
I0
aI11
asS'23_15_48371.48_48372.88.wav'
p1944
(lp1945
I0
aI22
asS'15_16_40964.66_40965.73.wav'
p1946
(lp1947
I0
aI22
asS'C25_08_26816.21_26816.82.wav'
p1948
(lp1949
I0
aI0
asS'04_08_25920.14_25921.01.wav'
p1950
(lp1951
I0
aI20
asS'23_15_27859.5_27860.22.wav'
p1952
(lp1953
I0
aI33
asS'c22_15_37350.0_37950.0.wav'
p1954
(lp1955
I0
aI11
asS'15_16_39194.62_39195.68.wav'
p1956
(lp1957
I0
aI18
asS'23_15_20289.61_20293.95.wav'
p1958
(lp1959
I0
aI31
asS'04_08_28329.78_28330.38.wav'
p1960
(lp1961
I0
aI11
asS'c22_15_52232810.0_52233730.0.wav'
p1962
(lp1963
I0
aI18
asS'c15_16_11669.31_11669.91.wav'
p1964
(lp1965
I0
aI20
asS'15_16_32732.79_32733.79.wav'
p1966
(lp1967
I0
aI11
asS'23_15_41152.77_41154.23.wav'
p1968
(lp1969
I0
aI22
asS'23_15_33615.69_33621.21.wav'
p1970
(lp1971
I0
aI22
asS'c22_15_50045750.0_50046460.0.wav'
p1972
(lp1973
I0
aI22
asS'C25_08_33084.04_33085.56.wav'
p1974
(lp1975
I0
aI20
asS'15_16_4804.86_4805.65.wav'
p1976
(lp1977
I0
aI22
asS'C25_08_39273.27_39273.92.wav'
p1978
(lp1979
I0
aI9
asS'C25_08_3986.7_3987.3.wav'
p1980
(lp1981
I0
aI20
asS'c22_15_40020.0_40620.0.wav'
p1982
(lp1983
I0
aI18
asS'15_16_36974.44_36975.74.wav'
p1984
(lp1985
I0
aI18
asS'C25_08_21360.46_21362.78.wav'
p1986
(lp1987
I0
aI33
asS'C25_08_18345.54_18346.14.wav'
p1988
(lp1989
I0
aI9
asS'C25_08_29000.83_29001.84.wav'
p1990
(lp1991
I0
aI11
asS'c22_15_720190.0_721140.0.wav'
p1992
(lp1993
I0
aI31
asS'C25_08_55998.56_56002.18.wav'
p1994
(lp1995
I0
aI22
asS'c15_16_35837.81_35838.41.wav'
p1996
(lp1997
I0
aI22
asS'c15_16_14395.24_14395.84.wav'
p1998
(lp1999
I0
aI9
asS'c15_16_17369.03_17369.85.wav'
p2000
(lp2001
I0
aI0
asS'C25_08_33051.8_33052.4.wav'
p2002
(lp2003
I0
aI18
asS'04_08_25371.5_25372.49.wav'
p2004
(lp2005
I0
aI11
asS'c22_15_46418580.0_46419190.0.wav'
p2006
(lp2007
I0
aI20
asS'23_15_18592.1_18593.0.wav'
p2008
(lp2009
I0
aI11
asS'15_16_2012.3_2012.93.wav'
p2010
(lp2011
I0
aI11
asS'15_16_34535.65_34536.52.wav'
p2012
(lp2013
I0
aI11
asS'c15_16_5602.58_5603.53.wav'
p2014
(lp2015
I0
aI11
asS'C25_08_22656.48_22657.1.wav'
p2016
(lp2017
I0
aI20
asS'c22_15_53237190.0_53237790.0.wav'
p2018
(lp2019
I0
aI0
asS'c15_16_48355.0_48355.93.wav'
p2020
(lp2021
I0
aI22
asS'23_15_25094.57_25095.17.wav'
p2022
(lp2023
I0
aI22
asS'c22_15_48325680.0_48326300.0.wav'
p2024
(lp2025
I0
aI11
asS'C25_08_31519.7_31520.69.wav'
p2026
(lp2027
I0
aI20
asS'23_15_56158.68_56159.28.wav'
p2028
(lp2029
I0
aI11
asS'23_15_30310.17_30310.85.wav'
p2030
(lp2031
I0
aI22
asS'C25_08_19289.89_19290.63.wav'
p2032
(lp2033
I0
aI22
asS'23_15_25016.89_25018.48.wav'
p2034
(lp2035
I0
aI22
asS'c15_16_4211.4_4212.0.wav'
p2036
(lp2037
I0
aI22
asS'c22_15_42589690.0_42590750.0.wav'
p2038
(lp2039
I0
aI11
asS'15_16_6898.87_6899.51.wav'
p2040
(lp2041
I0
aI11
asS'15_16_41137.03_41138.88.wav'
p2042
(lp2043
I0
aI33
asS'c22_15_52750850.0_52751700.0.wav'
p2044
(lp2045
I0
aI18
asS'15_16_10210.64_10211.95.wav'
p2046
(lp2047
I0
aI22
asS'C25_08_28311.69_28312.39.wav'
p2048
(lp2049
I0
aI20
asS'c15_16_36813.95_36816.89.wav'
p2050
(lp2051
I0
aI11
asS'15_16_44222.79_44223.4.wav'
p2052
(lp2053
I0
aI33
asS'04_08_29540.88_29541.49.wav'
p2054
(lp2055
I0
aI9
asS'c22_15_48738920.0_48740170.0.wav'
p2056
(lp2057
I0
aI22
asS'04_08_43665.65_43666.29.wav'
p2058
(lp2059
I0
aI11
asS'23_15_46720.3_46720.99.wav'
p2060
(lp2061
I0
aI18
asS'C25_08_7206.17_7206.87.wav'
p2062
(lp2063
I0
aI11
asS'c22_15_45849630.0_45850570.0.wav'
p2064
(lp2065
I0
aI22
asS'15_16_36199.66_36200.26.wav'
p2066
(lp2067
I0
aI0
asS'C25_08_19466.38_19467.1.wav'
p2068
(lp2069
I0
aI22
asS'C25_08_44773.86_44780.48.wav'
p2070
(lp2071
I0
aI11
asS'15_16_43901.62_43902.97.wav'
p2072
(lp2073
I0
aI11
asS'c22_15_3434000.0_3434600.0.wav'
p2074
(lp2075
I0
aI11
asS'23_15_27672.53_27673.41.wav'
p2076
(lp2077
I0
aI22
asS'c22_15_51345440.0_51346450.0.wav'
p2078
(lp2079
I0
aI20
asS'23_15_9555.3_9555.94.wav'
p2080
(lp2081
I0
aI20
asS'c15_16_44410.89_44411.89.wav'
p2082
(lp2083
I0
aI18
asS'04_08_16559.3_16559.9.wav'
p2084
(lp2085
I0
aI11
asS'15_16_19168.1_19168.91.wav'
p2086
(lp2087
I0
aI22
asS'04_08_27585.41_27586.01.wav'
p2088
(lp2089
I0
aI9
asS'c22_15_53760830.0_53762650.0.wav'
p2090
(lp2091
I0
aI20
asS'C25_08_18661.94_18662.54.wav'
p2092
(lp2093
I0
aI20
asS'c15_16_9205.11_9205.71.wav'
p2094
(lp2095
I0
aI9
asS'c22_15_57535890.0_57537500.0.wav'
p2096
(lp2097
I0
aI18
asS'15_16_46706.0_46706.6.wav'
p2098
(lp2099
I0
aI20
asS'23_15_26191.94_26192.73.wav'
p2100
(lp2101
I0
aI22
asS'C25_08_4021.19_4022.0.wav'
p2102
(lp2103
I0
aI11
asS'04_08_35882.74_35883.73.wav'
p2104
(lp2105
I0
aI9
asS'04_08_19453.73_19454.51.wav'
p2106
(lp2107
I0
aI22
asS'C25_08_27544.09_27545.1.wav'
p2108
(lp2109
I0
aI11
asS'c15_16_1724.97_1726.39.wav'
p2110
(lp2111
I0
aI11
asS'04_08_28696.91_28697.61.wav'
p2112
(lp2113
I0
aI18
asS'c15_16_19860.91_19864.3.wav'
p2114
(lp2115
I0
aI0
asS'c15_16_33856.04_33856.68.wav'
p2116
(lp2117
I0
aI11
asS'23_15_12189.07_12190.52.wav'
p2118
(lp2119
I0
aI11
asS'15_16_40660.21_40661.02.wav'
p2120
(lp2121
I0
aI22
asS'C25_08_8441.25_8442.64.wav'
p2122
(lp2123
I0
aI29
asS'c15_16_20578.75_20579.37.wav'
p2124
(lp2125
I0
aI0
asS'c15_16_27546.05_27546.66.wav'
p2126
(lp2127
I0
aI11
asS'c22_15_57067400.0_57069340.0.wav'
p2128
(lp2129
I0
aI29
asS'c22_15_52281700.0_52282300.0.wav'
p2130
(lp2131
I0
aI18
asS'23_15_47242.59_47243.59.wav'
p2132
(lp2133
I0
aI11
asS'C25_08_6444.24_6444.9.wav'
p2134
(lp2135
I0
aI20
asS'15_16_43699.34_43700.34.wav'
p2136
(lp2137
I0
aI22
asS'15_16_17386.24_17392.85.wav'
p2138
(lp2139
I0
aI11
asS'23_15_1614.9_1615.7.wav'
p2140
(lp2141
I0
aI9
asS'04_08_30444.83_30445.43.wav'
p2142
(lp2143
I0
aI11
asS'c15_16_14867.35_14868.18.wav'
p2144
(lp2145
I0
aI20
asS'c15_16_26482.3_26483.12.wav'
p2146
(lp2147
I0
aI11
asS'04_08_1010.32_1011.29.wav'
p2148
(lp2149
I0
aI22
asS'04_08_43668.42_43669.02.wav'
p2150
(lp2151
I0
aI18
asS'c22_15_49421660.0_49422860.0.wav'
p2152
(lp2153
I0
aI11
asS'15_16_37428.66_37430.0.wav'
p2154
(lp2155
I0
aI9
asS'04_08_41075.63_41076.76.wav'
p2156
(lp2157
I0
aI18
asS'04_08_44228.39_44230.39.wav'
p2158
(lp2159
I0
aI22
asS'c15_16_11067.73_11068.33.wav'
p2160
(lp2161
I0
aI11
asS'c22_15_1368080.0_1368840.0.wav'
p2162
(lp2163
I0
aI18
asS'23_15_14657.68_14661.16.wav'
p2164
(lp2165
I0
aI11
asS'C25_08_23024.15_23026.94.wav'
p2166
(lp2167
I0
aI11
asS'04_08_28274.69_28275.64.wav'
p2168
(lp2169
I0
aI11
asS'04_08_47984.64_47985.63.wav'
p2170
(lp2171
I0
aI18
asS'23_15_12804.38_12806.72.wav'
p2172
(lp2173
I0
aI11
asS'c22_15_57034720.0_57037600.0.wav'
p2174
(lp2175
I0
aI31
asS'c15_16_19713.11_19714.12.wav'
p2176
(lp2177
I0
aI9
asS'c15_16_2418.27_2418.89.wav'
p2178
(lp2179
I0
aI11
asS'C25_08_48012.78_48013.4.wav'
p2180
(lp2181
I0
aI20
asS'c15_16_21855.58_21856.34.wav'
p2182
(lp2183
I0
aI20
asS'c15_16_31184.62_31185.22.wav'
p2184
(lp2185
I0
aI11
asS'C25_08_9435.49_9436.23.wav'
p2186
(lp2187
I0
aI11
asS'04_08_32600.6_32601.81.wav'
p2188
(lp2189
I0
aI11
asS'c22_15_55341450.0_55342050.0.wav'
p2190
(lp2191
I0
aI0
asS'15_16_37974.77_37975.77.wav'
p2192
(lp2193
I0
aI9
asS'04_08_33656.32_33660.6.wav'
p2194
(lp2195
I0
aI22
asS'c15_16_13198.88_13200.08.wav'
p2196
(lp2197
I0
aI11
asS'C25_08_26965.2_26965.86.wav'
p2198
(lp2199
I0
aI11
asS'c15_16_5623.91_5624.87.wav'
p2200
(lp2201
I0
aI22
asS'c15_16_15332.01_15332.61.wav'
p2202
(lp2203
I0
aI33
asS'15_16_4009.41_4010.16.wav'
p2204
(lp2205
I0
aI20
asS'C25_08_20220.18_20220.78.wav'
p2206
(lp2207
I0
aI20
asS'15_16_9073.91_9075.09.wav'
p2208
(lp2209
I0
aI20
asS'15_16_4409.65_4410.58.wav'
p2210
(lp2211
I0
aI11
asS'23_15_44760.09_44760.75.wav'
p2212
(lp2213
I0
aI18
asS'C25_08_25300.27_25300.88.wav'
p2214
(lp2215
I0
aI11
asS'23_15_23399.2_23399.81.wav'
p2216
(lp2217
I0
aI29
asS'04_08_43533.77_43534.37.wav'
p2218
(lp2219
I0
aI22
asS'15_16_32541.22_32542.05.wav'
p2220
(lp2221
I0
aI0
asS'c15_16_26256.12_26257.01.wav'
p2222
(lp2223
I0
aI18
asS'c15_16_24731.62_24732.24.wav'
p2224
(lp2225
I0
aI22
asS'C25_08_21461.26_21462.76.wav'
p2226
(lp2227
I0
aI11
asS'04_08_44424.13_44424.73.wav'
p2228
(lp2229
I0
aI31
asS'23_15_16198.06_16198.79.wav'
p2230
(lp2231
I0
aI11
asS'04_08_33432.53_33434.55.wav'
p2232
(lp2233
I0
aI20
asS'c22_15_49003740.0_49004350.0.wav'
p2234
(lp2235
I0
aI22
asS'c15_16_27468.66_27469.64.wav'
p2236
(lp2237
I0
aI11
asS'C25_08_28493.23_28494.04.wav'
p2238
(lp2239
I0
aI11
asS'c22_15_49306610.0_49307310.0.wav'
p2240
(lp2241
I0
aI18
asS'15_16_46445.75_46447.35.wav'
p2242
(lp2243
I0
aI9
asS'c15_16_14936.89_14937.82.wav'
p2244
(lp2245
I0
aI22
asS'15_16_44253.91_44254.53.wav'
p2246
(lp2247
I0
aI20
asS'04_08_26296.43_26298.43.wav'
p2248
(lp2249
I0
aI0
asS'c15_16_51.2_52.51.wav'
p2250
(lp2251
I0
aI11
asS'15_16_37277.83_37278.65.wav'
p2252
(lp2253
I0
aI20
asS'23_15_30129.46_30130.06.wav'
p2254
(lp2255
I0
aI18
asS'23_15_37330.32_37331.27.wav'
p2256
(lp2257
I0
aI11
asS'C25_08_403.01_404.31.wav'
p2258
(lp2259
I0
aI31
asS'c22_15_57078610.0_57079220.0.wav'
p2260
(lp2261
I0
aI11
asS'c22_15_50530220.0_50530820.0.wav'
p2262
(lp2263
I0
aI22
asS'15_16_44020.53_44021.3.wav'
p2264
(lp2265
I0
aI22
asS'04_08_19914.55_19915.62.wav'
p2266
(lp2267
I0
aI20
asS'23_15_38941.78_38942.84.wav'
p2268
(lp2269
I0
aI0
asS'c22_15_52723770.0_52724370.0.wav'
p2270
(lp2271
I0
aI9
asS'c15_16_34.57_35.21.wav'
p2272
(lp2273
I0
aI11
asS'23_15_3705.83_3706.51.wav'
p2274
(lp2275
I0
aI0
asS'C25_08_23695.88_23697.08.wav'
p2276
(lp2277
I0
aI9
asS'15_16_39276.96_39277.56.wav'
p2278
(lp2279
I0
aI11
asS'c15_16_21900.61_21901.59.wav'
p2280
(lp2281
I0
aI20
asS'c22_15_51177140.0_51177740.0.wav'
p2282
(lp2283
I0
aI0
asS'c22_15_4115600.0_4116440.0.wav'
p2284
(lp2285
I0
aI20
asS'C25_08_44370.2_44374.36.wav'
p2286
(lp2287
I0
aI11
asS'15_16_32147.27_32148.35.wav'
p2288
(lp2289
I0
aI22
asS'15_16_30010.71_30011.97.wav'
p2290
(lp2291
I0
aI22
asS'c15_16_53481.88_53482.56.wav'
p2292
(lp2293
I0
aI11
asS'15_16_9546.64_9547.25.wav'
p2294
(lp2295
I0
aI20
asS'c15_16_24690.41_24691.42.wav'
p2296
(lp2297
I0
aI22
asS'c15_16_12966.34_12967.9.wav'
p2298
(lp2299
I0
aI22
asS'C25_08_23695.16_23695.88.wav'
p2300
(lp2301
I0
aI20
asS'15_16_1020.36_1021.22.wav'
p2302
(lp2303
I0
aI9
asS'15_16_44057.42_44058.03.wav'
p2304
(lp2305
I0
aI22
asS'c15_16_3684.9_3685.5.wav'
p2306
(lp2307
I0
aI22
asS'23_15_22210.65_22211.25.wav'
p2308
(lp2309
I0
aI22
asS'c22_15_44870150.0_44870780.0.wav'
p2310
(lp2311
I0
aI11
asS'23_15_12737.02_12738.35.wav'
p2312
(lp2313
I0
aI22
asS'c15_16_34449.8_34450.49.wav'
p2314
(lp2315
I0
aI11
asS'c22_15_48408490.0_48409090.0.wav'
p2316
(lp2317
I0
aI9
asS'04_08_32231.92_32233.56.wav'
p2318
(lp2319
I0
aI11
asS'23_15_49035.72_49038.33.wav'
p2320
(lp2321
I0
aI22
asS'c15_16_5629.99_5630.61.wav'
p2322
(lp2323
I0
aI22
asS'23_15_2522.99_2525.28.wav'
p2324
(lp2325
I0
aI11
asS'04_08_3423.75_3424.58.wav'
p2326
(lp2327
I0
aI22
asS'04_08_2434.86_2435.59.wav'
p2328
(lp2329
I0
aI33
asS'23_15_8228.63_8229.43.wav'
p2330
(lp2331
I0
aI11
asS'23_15_40428.41_40429.22.wav'
p2332
(lp2333
I0
aI22
asS'c22_15_1062020.0_1062660.0.wav'
p2334
(lp2335
I0
aI22
asS'c22_15_52140490.0_52141170.0.wav'
p2336
(lp2337
I0
aI20
asS'15_16_37072.3_37073.42.wav'
p2338
(lp2339
I0
aI9
asS'04_08_31825.44_31826.28.wav'
p2340
(lp2341
I0
aI11
asS'04_08_35033.43_35034.04.wav'
p2342
(lp2343
I0
aI11
asS'C25_08_56479.45_56480.06.wav'
p2344
(lp2345
I0
aI11
asS'23_15_25709.94_25711.09.wav'
p2346
(lp2347
I0
aI0
asS'04_08_47438.27_47439.7.wav'
p2348
(lp2349
I0
aI18
asS'15_16_7031.57_7032.17.wav'
p2350
(lp2351
I0
aI22
asS'c22_15_53129390.0_53129990.0.wav'
p2352
(lp2353
I0
aI22
asS'c15_16_14245.78_14246.6.wav'
p2354
(lp2355
I0
aI22
asS'04_08_25225.67_25226.79.wav'
p2356
(lp2357
I0
aI18
asS'c22_15_51287280.0_51288870.0.wav'
p2358
(lp2359
I0
aI18
asS'C25_08_44402.75_44403.46.wav'
p2360
(lp2361
I0
aI22
asS'23_15_5581.38_5583.06.wav'
p2362
(lp2363
I0
aI11
asS'23_15_30970.24_30973.23.wav'
p2364
(lp2365
I0
aI11
asS'04_08_43027.02_43027.83.wav'
p2366
(lp2367
I0
aI11
asS'c22_15_53849990.0_53852780.0.wav'
p2368
(lp2369
I0
aI9
asS'c22_15_49038560.0_49039570.0.wav'
p2370
(lp2371
I0
aI9
asS'c15_16_11797.0_11797.76.wav'
p2372
(lp2373
I0
aI22
asS'c22_15_48831680.0_48833300.0.wav'
p2374
(lp2375
I0
aI22
asS'15_16_37578.64_37579.51.wav'
p2376
(lp2377
I0
aI9
asS'c15_16_25659.68_25660.28.wav'
p2378
(lp2379
I0
aI22
asS'23_15_25993.93_25994.88.wav'
p2380
(lp2381
I0
aI22
asS'c15_16_34554.01_34555.47.wav'
p2382
(lp2383
I0
aI22
asS'23_15_56228.11_56228.72.wav'
p2384
(lp2385
I0
aI20
asS'15_16_4346.1_4346.9.wav'
p2386
(lp2387
I0
aI11
asS'04_08_13864.3_13865.45.wav'
p2388
(lp2389
I0
aI11
asS'04_08_33451.03_33452.27.wav'
p2390
(lp2391
I0
aI9
asS'c15_16_10874.9_10875.5.wav'
p2392
(lp2393
I0
aI9
asS'c15_16_25200.09_25200.96.wav'
p2394
(lp2395
I0
aI22
asS'c22_15_46183500.0_46184450.0.wav'
p2396
(lp2397
I0
aI22
asS'C25_08_31490.26_31490.86.wav'
p2398
(lp2399
I0
aI20
asS'c22_15_50459720.0_50460320.0.wav'
p2400
(lp2401
I0
aI22
asS'C25_08_4554.43_4555.38.wav'
p2402
(lp2403
I0
aI11
asS'15_16_33761.5_33762.1.wav'
p2404
(lp2405
I0
aI18
asS'c15_16_19740.19_19743.16.wav'
p2406
(lp2407
I0
aI11
asS'15_16_4074.86_4075.97.wav'
p2408
(lp2409
I0
aI22
asS'c15_16_9523.42_9533.45.wav'
p2410
(lp2411
I0
aI22
asS'c15_16_3493.47_3494.61.wav'
p2412
(lp2413
I0
aI11
asS'23_15_129.67_131.1.wav'
p2414
(lp2415
I0
aI33
asS'23_15_20858.81_20861.05.wav'
p2416
(lp2417
I0
aI33
asS'c22_15_53194670.0_53198240.0.wav'
p2418
(lp2419
I0
aI22
asS'04_08_33728.69_33729.6.wav'
p2420
(lp2421
I0
aI11
asS'15_16_48268.05_48269.05.wav'
p2422
(lp2423
I0
aI22
asS'04_08_29603.83_29604.52.wav'
p2424
(lp2425
I0
aI22
asS'23_15_31852.4_31853.01.wav'
p2426
(lp2427
I0
aI9
asS'c22_15_46076340.0_46076940.0.wav'
p2428
(lp2429
I0
aI11
asS'c22_15_48950960.0_48952160.0.wav'
p2430
(lp2431
I0
aI11
asS'04_08_33439.9_33440.9.wav'
p2432
(lp2433
I0
aI18
asS'c15_16_34258.65_34260.91.wav'
p2434
(lp2435
I0
aI11
asS'15_16_19085.95_19086.55.wav'
p2436
(lp2437
I0
aI22
asS'c22_15_53547620.0_53549560.0.wav'
p2438
(lp2439
I0
aI22
asS'15_16_5635.74_5636.38.wav'
p2440
(lp2441
I0
aI27
asS'c22_15_51057790.0_51059790.0.wav'
p2442
(lp2443
I0
aI11
asS'c22_15_56876160.0_56876980.0.wav'
p2444
(lp2445
I0
aI11
asS'15_16_37350.65_37351.25.wav'
p2446
(lp2447
I0
aI18
asS'c22_15_55987350.0_55988250.0.wav'
p2448
(lp2449
I0
aI11
asS'15_16_37313.73_37314.53.wav'
p2450
(lp2451
I0
aI11
asS'C25_08_1255.42_1256.29.wav'
p2452
(lp2453
I0
aI20
asS'C25_08_14087.6_14088.36.wav'
p2454
(lp2455
I0
aI20
asS'c15_16_25439.84_25440.64.wav'
p2456
(lp2457
I0
aI11
asS'23_15_10785.95_10787.66.wav'
p2458
(lp2459
I0
aI22
asS'C25_08_28372.72_28373.32.wav'
p2460
(lp2461
I0
aI20
asS'04_08_30586.0_30587.11.wav'
p2462
(lp2463
I0
aI33
asS'c22_15_4263710.0_4264310.0.wav'
p2464
(lp2465
I0
aI22
asS'c15_16_33531.09_33531.91.wav'
p2466
(lp2467
I0
aI11
asS'23_15_48044.75_48045.35.wav'
p2468
(lp2469
I0
aI22
asS'c22_15_4546860.0_4547730.0.wav'
p2470
(lp2471
I0
aI29
asS'C25_08_40190.05_40191.59.wav'
p2472
(lp2473
I0
aI22
asS'23_15_56395.41_56403.65.wav'
p2474
(lp2475
I0
aI22
asS'C25_08_29255.43_29256.33.wav'
p2476
(lp2477
I0
aI11
asS'15_16_38452.52_38453.39.wav'
p2478
(lp2479
I0
aI9
asS'04_08_1505.38_1506.75.wav'
p2480
(lp2481
I0
aI9
asS'c15_16_14416.81_14418.33.wav'
p2482
(lp2483
I0
aI22
asS'c22_15_46373830.0_46376300.0.wav'
p2484
(lp2485
I0
aI11
asS'c15_16_32208.03_32210.08.wav'
p2486
(lp2487
I0
aI22
asS'04_08_33846.5_33847.21.wav'
p2488
(lp2489
I0
aI22
asS'c15_16_35719.39_35720.63.wav'
p2490
(lp2491
I0
aI11
asS'23_15_46690.2_46691.3.wav'
p2492
(lp2493
I0
aI22
asS'c22_15_49141550.0_49143320.0.wav'
p2494
(lp2495
I0
aI9
asS'23_15_38878.59_38879.52.wav'
p2496
(lp2497
I0
aI22
asS'15_16_4237.68_4239.41.wav'
p2498
(lp2499
I0
aI11
asS'15_16_46806.26_46806.92.wav'
p2500
(lp2501
I0
aI11
asS'C25_08_29523.13_29523.73.wav'
p2502
(lp2503
I0
aI0
asS'23_15_16555.98_16556.58.wav'
p2504
(lp2505
I0
aI11
asS'c22_15_47117550.0_47118150.0.wav'
p2506
(lp2507
I0
aI33
asS'c22_15_51487460.0_51488060.0.wav'
p2508
(lp2509
I0
aI22
asS'15_16_13460.14_13460.74.wav'
p2510
(lp2511
I0
aI0
asS'C25_08_23736.71_23737.71.wav'
p2512
(lp2513
I0
aI11
asS'C25_08_21019.26_21020.1.wav'
p2514
(lp2515
I0
aI22
asS'c22_15_48296040.0_48298460.0.wav'
p2516
(lp2517
I0
aI18
asS'23_15_35141.68_35143.16.wav'
p2518
(lp2519
I0
aI22
asS'23_15_34999.01_35000.22.wav'
p2520
(lp2521
I0
aI22
asS'15_16_6655.71_6656.99.wav'
p2522
(lp2523
I0
aI33
asS'c15_16_10428.02_10428.68.wav'
p2524
(lp2525
I0
aI33
asS'C25_08_19636.11_19637.3.wav'
p2526
(lp2527
I0
aI11
asS'15_16_46677.66_46678.63.wav'
p2528
(lp2529
I0
aI11
asS'c22_15_50053270.0_50054310.0.wav'
p2530
(lp2531
I0
aI22
asS'04_08_28038.88_28039.78.wav'
p2532
(lp2533
I0
aI22
asS'C25_08_20324.02_20325.2.wav'
p2534
(lp2535
I0
aI11
asS'c22_15_3626550.0_3627150.0.wav'
p2536
(lp2537
I0
aI22
asS'15_16_17674.0_17675.57.wav'
p2538
(lp2539
I0
aI22
asS'c22_15_48716510.0_48717110.0.wav'
p2540
(lp2541
I0
aI18
asS'c22_15_53284100.0_53290000.0.wav'
p2542
(lp2543
I0
aI11
asS'C25_08_27008.04_27009.52.wav'
p2544
(lp2545
I0
aI22
asS'04_08_18522.19_18523.03.wav'
p2546
(lp2547
I0
aI11
asS'04_08_28702.39_28702.99.wav'
p2548
(lp2549
I0
aI11
asS'c15_16_17280.41_17281.44.wav'
p2550
(lp2551
I0
aI11
asS'04_08_30745.86_30747.39.wav'
p2552
(lp2553
I0
aI0
asS'C25_08_49024.32_49025.19.wav'
p2554
(lp2555
I0
aI18
asS'c15_16_13903.23_13904.23.wav'
p2556
(lp2557
I0
aI0
asS'c15_16_24476.95_24477.86.wav'
p2558
(lp2559
I0
aI11
asS'15_16_33868.88_33871.62.wav'
p2560
(lp2561
I0
aI11
asS'04_08_47763.51_47764.36.wav'
p2562
(lp2563
I0
aI22
asS'C25_08_22007.03_22007.65.wav'
p2564
(lp2565
I0
aI11
asS'c15_16_25805.97_25806.6.wav'
p2566
(lp2567
I0
aI18
asS'04_08_35387.0_35388.14.wav'
p2568
(lp2569
I0
aI20
asS'15_16_39741.37_39741.99.wav'
p2570
(lp2571
I0
aI11
asS'c15_16_9119.35_9119.95.wav'
p2572
(lp2573
I0
aI22
asS'C25_08_23994.74_23995.74.wav'
p2574
(lp2575
I0
aI20
asS'04_08_18396.19_18396.95.wav'
p2576
(lp2577
I0
aI11
asS'23_15_26077.31_26079.3.wav'
p2578
(lp2579
I0
aI11
asS'C25_08_39260.89_39261.49.wav'
p2580
(lp2581
I0
aI22
asS'C25_08_37909.32_37909.92.wav'
p2582
(lp2583
I0
aI9
asS'C25_08_27291.3_27291.9.wav'
p2584
(lp2585
I0
aI0
asS'15_16_32758.97_32760.62.wav'
p2586
(lp2587
I0
aI22
asS'04_08_35775.22_35775.87.wav'
p2588
(lp2589
I0
aI20
asS'23_15_10762.59_10763.61.wav'
p2590
(lp2591
I0
aI11
asS'23_15_29566.58_29567.25.wav'
p2592
(lp2593
I0
aI20
asS'c15_16_33731.16_33733.63.wav'
p2594
(lp2595
I0
aI22
asS'15_16_36682.86_36683.46.wav'
p2596
(lp2597
I0
aI22
asS'C25_08_22435.61_22436.21.wav'
p2598
(lp2599
I0
aI20
asS'c22_15_46142350.0_46144140.0.wav'
p2600
(lp2601
I0
aI22
asS'c22_15_48055680.0_48056660.0.wav'
p2602
(lp2603
I0
aI11
asS'c15_16_25720.68_25721.97.wav'
p2604
(lp2605
I0
aI22
asS'23_15_48689.36_48691.18.wav'
p2606
(lp2607
I0
aI9
asS'c22_15_57094980.0_57096040.0.wav'
p2608
(lp2609
I0
aI11
asS'15_16_16808.65_16809.25.wav'
p2610
(lp2611
I0
aI22
asS'23_15_56418.1_56418.9.wav'
p2612
(lp2613
I0
aI11
asS'23_15_46568.86_46569.92.wav'
p2614
(lp2615
I0
aI31
asS'c22_15_49013410.0_49014020.0.wav'
p2616
(lp2617
I0
aI9
asS'23_15_9103.2_9103.85.wav'
p2618
(lp2619
I0
aI22
asS'c22_15_53209550.0_53211240.0.wav'
p2620
(lp2621
I0
aI11
asS'c22_15_53224880.0_53226420.0.wav'
p2622
(lp2623
I0
aI22
asS'15_16_59.26_59.86.wav'
p2624
(lp2625
I0
aI18
asS'C25_08_3684.24_3684.97.wav'
p2626
(lp2627
I0
aI11
asS'C25_08_4067.2_4068.01.wav'
p2628
(lp2629
I0
aI11
asS'C25_08_21142.98_21144.95.wav'
p2630
(lp2631
I0
aI20
asS'C25_08_23679.28_23680.44.wav'
p2632
(lp2633
I0
aI20
asS'15_16_8976.58_8978.11.wav'
p2634
(lp2635
I0
aI0
asS'c22_15_57001260.0_57001980.0.wav'
p2636
(lp2637
I0
aI22
asS'04_08_31309.43_31310.09.wav'
p2638
(lp2639
I0
aI11
asS'c15_16_9416.0_9416.78.wav'
p2640
(lp2641
I0
aI22
asS'23_15_10806.9_10807.99.wav'
p2642
(lp2643
I0
aI11
asS'c15_16_885.01_885.81.wav'
p2644
(lp2645
I0
aI9
asS'c15_16_31122.62_31123.51.wav'
p2646
(lp2647
I0
aI20
asS'15_16_45968.01_45969.56.wav'
p2648
(lp2649
I0
aI0
asS'C25_08_40182.33_40183.59.wav'
p2650
(lp2651
I0
aI11
asS'C25_08_9602.34_9602.95.wav'
p2652
(lp2653
I0
aI11
asS'C25_08_2684.12_2684.74.wav'
p2654
(lp2655
I0
aI11
asS'04_08_471.3_472.4.wav'
p2656
(lp2657
I0
aI18
asS'c22_15_7478810.0_7479910.0.wav'
p2658
(lp2659
I0
aI18
asS'23_15_12633.53_12635.36.wav'
p2660
(lp2661
I0
aI31
asS'04_08_46870.85_46871.51.wav'
p2662
(lp2663
I0
aI0
asS'23_15_34949.39_34949.99.wav'
p2664
(lp2665
I0
aI11
asS'C25_08_4252.62_4253.22.wav'
p2666
(lp2667
I0
aI11
asS'C25_08_16503.85_16504.73.wav'
p2668
(lp2669
I0
aI11
asS'c15_16_9570.9_9573.03.wav'
p2670
(lp2671
I0
aI20
asS'C25_08_17279.74_17282.04.wav'
p2672
(lp2673
I0
aI22
asS'c15_16_32014.6_32015.4.wav'
p2674
(lp2675
I0
aI11
asS'c22_15_56058750.0_56060190.0.wav'
p2676
(lp2677
I0
aI9
asS'23_15_45658.34_45659.21.wav'
p2678
(lp2679
I0
aI11
asS'c15_16_30451.87_30452.47.wav'
p2680
(lp2681
I0
aI20
asS'C25_08_21104.88_21105.49.wav'
p2682
(lp2683
I0
aI20
asS'23_15_41127.16_41127.8.wav'
p2684
(lp2685
I0
aI22
asS'15_16_11027.59_11028.22.wav'
p2686
(lp2687
I0
aI22
asS'23_15_38709.59_38711.5.wav'
p2688
(lp2689
I0
aI11
asS'c15_16_35820.33_35821.33.wav'
p2690
(lp2691
I0
aI11
asS'04_08_16384.8_16385.8.wav'
p2692
(lp2693
I0
aI11
asS'c15_16_23979.42_23980.42.wav'
p2694
(lp2695
I0
aI11
asS'c15_16_25666.36_25666.96.wav'
p2696
(lp2697
I0
aI0
asS'23_15_1261.18_1261.78.wav'
p2698
(lp2699
I0
aI22
asS'c15_16_19650.3_19651.1.wav'
p2700
(lp2701
I0
aI11
asS'c22_15_1297640.0_1302560.0.wav'
p2702
(lp2703
I0
aI20
asS'23_15_44849.35_44849.95.wav'
p2704
(lp2705
I0
aI18
asS'C25_08_22539.78_22540.38.wav'
p2706
(lp2707
I0
aI22
asS'23_15_29958.4_29959.82.wav'
p2708
(lp2709
I0
aI18
asS'23_15_48268.68_48269.48.wav'
p2710
(lp2711
I0
aI22
asS'C25_08_49479.49_49480.54.wav'
p2712
(lp2713
I0
aI22
asS'c22_15_1105070.0_1108310.0.wav'
p2714
(lp2715
I0
aI0
asS'15_16_15808.19_15808.79.wav'
p2716
(lp2717
I0
aI22
asS'15_16_36885.2_36885.97.wav'
p2718
(lp2719
I0
aI11
asS'04_08_741.06_741.75.wav'
p2720
(lp2721
I0
aI22
asS'c22_15_50901350.0_50902420.0.wav'
p2722
(lp2723
I0
aI11
asS'04_08_32438.62_32439.25.wav'
p2724
(lp2725
I0
aI20
asS'15_16_44100.88_44101.48.wav'
p2726
(lp2727
I0
aI22
asS'c15_16_21874.85_21876.92.wav'
p2728
(lp2729
I0
aI22
asS'15_16_42159.64_42160.64.wav'
p2730
(lp2731
I0
aI9
asS'C25_08_29422.21_29423.59.wav'
p2732
(lp2733
I0
aI33
asS'15_16_44907.98_44908.71.wav'
p2734
(lp2735
I0
aI18
asS'15_16_33979.76_33981.05.wav'
p2736
(lp2737
I0
aI22
asS'23_15_44478.44_44479.07.wav'
p2738
(lp2739
I0
aI11
asS'23_15_24119.61_24120.78.wav'
p2740
(lp2741
I0
aI22
asS'15_16_43787.27_43788.07.wav'
p2742
(lp2743
I0
aI22
asS'04_08_33774.45_33775.39.wav'
p2744
(lp2745
I0
aI22
asS'C25_08_23737.71_23738.34.wav'
p2746
(lp2747
I0
aI11
asS'23_15_44503.19_44503.79.wav'
p2748
(lp2749
I0
aI18
asS'c15_16_24428.71_24431.95.wav'
p2750
(lp2751
I0
aI11
asS'c22_15_53081190.0_53082040.0.wav'
p2752
(lp2753
I0
aI22
asS'23_15_30144.24_30146.96.wav'
p2754
(lp2755
I0
aI29
asS'c22_15_53564360.0_53565730.0.wav'
p2756
(lp2757
I0
aI11
asS'23_15_27905.15_27905.99.wav'
p2758
(lp2759
I0
aI11
asS'c22_15_51066090.0_51067110.0.wav'
p2760
(lp2761
I0
aI11
asS'23_15_36614.59_36615.23.wav'
p2762
(lp2763
I0
aI11
asS'04_08_786.36_788.86.wav'
p2764
(lp2765
I0
aI20
asS'23_15_47664.76_47665.88.wav'
p2766
(lp2767
I0
aI27
asS'15_16_11887.91_11888.9.wav'
p2768
(lp2769
I0
aI11
asS'c15_16_11883.99_11884.59.wav'
p2770
(lp2771
I0
aI22
asS'C25_08_14409.75_14410.35.wav'
p2772
(lp2773
I0
aI9
asS'04_08_26114.77_26115.37.wav'
p2774
(lp2775
I0
aI31
asS'C25_08_30052.44_30053.04.wav'
p2776
(lp2777
I0
aI11
asS'C25_08_27224.84_27225.69.wav'
p2778
(lp2779
I0
aI11
asS'C25_08_55985.89_55986.94.wav'
p2780
(lp2781
I0
aI11
asS'C25_08_21482.3_21482.9.wav'
p2782
(lp2783
I0
aI11
asS'c22_15_57029000.0_57029610.0.wav'
p2784
(lp2785
I0
aI20
asS'15_16_41476.54_41477.29.wav'
p2786
(lp2787
I0
aI9
asS'04_08_43825.84_43828.2.wav'
p2788
(lp2789
I0
aI11
asS'C25_08_23053.14_23053.74.wav'
p2790
(lp2791
I0
aI11
asS'C25_08_5409.91_5410.92.wav'
p2792
(lp2793
I0
aI20
asS'c22_15_50041370.0_50042740.0.wav'
p2794
(lp2795
I0
aI22
asS'c15_16_25191.61_25192.54.wav'
p2796
(lp2797
I0
aI11
asS'23_15_13903.56_13910.5.wav'
p2798
(lp2799
I0
aI11
asS'23_15_17415.05_17416.59.wav'
p2800
(lp2801
I0
aI11
asS'04_08_34127.55_34128.61.wav'
p2802
(lp2803
I0
aI22
asS'c15_16_5613.36_5613.96.wav'
p2804
(lp2805
I0
aI11
asS'c22_15_56986540.0_56987780.0.wav'
p2806
(lp2807
I0
aI22
asS'c15_16_20552.7_20553.3.wav'
p2808
(lp2809
I0
aI33
asS'C25_08_23533.97_23534.57.wav'
p2810
(lp2811
I0
aI20
asS'c22_15_45182460.0_45183750.0.wav'
p2812
(lp2813
I0
aI22
asS'04_08_46679.25_46680.62.wav'
p2814
(lp2815
I0
aI11
asS'C25_08_28390.67_28391.27.wav'
p2816
(lp2817
I0
aI11
asS'04_08_19350.65_19351.25.wav'
p2818
(lp2819
I0
aI18
asS'04_08_12361.1_12362.18.wav'
p2820
(lp2821
I0
aI11
asS'15_16_32156.59_32157.92.wav'
p2822
(lp2823
I0
aI22
asS'15_16_9088.15_9088.75.wav'
p2824
(lp2825
I0
aI11
asS'04_08_29846.51_29847.16.wav'
p2826
(lp2827
I0
aI22
asS'04_08_42832.51_42838.04.wav'
p2828
(lp2829
I0
aI11
asS'c15_16_17514.19_17514.86.wav'
p2830
(lp2831
I0
aI22
asS'c22_15_45219350.0_45220100.0.wav'
p2832
(lp2833
I0
aI22
asS'04_08_2389.32_2390.3.wav'
p2834
(lp2835
I0
aI11
asS'c22_15_2424780.0_2425690.0.wav'
p2836
(lp2837
I0
aI27
asS'c22_15_46154040.0_46154770.0.wav'
p2838
(lp2839
I0
aI11
asS'04_08_31879.25_31880.27.wav'
p2840
(lp2841
I0
aI22
asS'c15_16_30333.14_30333.85.wav'
p2842
(lp2843
I0
aI11
asS'23_15_18448.18_18449.24.wav'
p2844
(lp2845
I0
aI22
asS'c22_15_48869370.0_48870040.0.wav'
p2846
(lp2847
I0
aI31
asS'15_16_47345.99_47346.59.wav'
p2848
(lp2849
I0
aI22
asS'04_08_7918.54_7919.46.wav'
p2850
(lp2851
I0
aI18
asS'23_15_13006.0_13007.24.wav'
p2852
(lp2853
I0
aI22
asS'04_08_2463.38_2464.44.wav'
p2854
(lp2855
I0
aI22
asS'c22_15_51172360.0_51172960.0.wav'
p2856
(lp2857
I0
aI11
asS'04_08_28288.13_28289.59.wav'
p2858
(lp2859
I0
aI31
asS'04_08_19533.02_19534.13.wav'
p2860
(lp2861
I0
aI20
asS'c22_15_56922760.0_56924060.0.wav'
p2862
(lp2863
I0
aI22
asS'15_16_187.48_190.62.wav'
p2864
(lp2865
I0
aI11
asS'c22_15_55714860.0_55716070.0.wav'
p2866
(lp2867
I0
aI0
asS'04_08_45824.87_45825.96.wav'
p2868
(lp2869
I0
aI22
asS'04_08_12348.09_12353.25.wav'
p2870
(lp2871
I0
aI11
asS'04_08_2827.8_2828.4.wav'
p2872
(lp2873
I0
aI20
asS'04_08_34069.17_34070.44.wav'
p2874
(lp2875
I0
aI22
asS'23_15_44475.37_44475.97.wav'
p2876
(lp2877
I0
aI20
asS'c15_16_6498.09_6498.84.wav'
p2878
(lp2879
I0
aI20
asS'C25_08_22788.97_22789.66.wav'
p2880
(lp2881
I0
aI33
asS'04_08_25568.04_25568.64.wav'
p2882
(lp2883
I0
aI20
asS'04_08_25465.68_25466.28.wav'
p2884
(lp2885
I0
aI22
asS'C25_08_1776.99_1777.66.wav'
p2886
(lp2887
I0
aI11
asS'C25_08_29499.34_29500.74.wav'
p2888
(lp2889
I0
aI11
asS'C25_08_6596.17_6602.88.wav'
p2890
(lp2891
I0
aI20
asS'23_15_12449.28_12449.88.wav'
p2892
(lp2893
I0
aI31
asS'c15_16_31085.5_31086.1.wav'
p2894
(lp2895
I0
aI22
asS'04_08_13548.64_13549.39.wav'
p2896
(lp2897
I0
aI22
asS'c15_16_10448.56_10449.39.wav'
p2898
(lp2899
I0
aI9
asS'04_08_30128.23_30128.83.wav'
p2900
(lp2901
I0
aI11
asS'15_16_38474.19_38474.92.wav'
p2902
(lp2903
I0
aI22
asS'c22_15_53399120.0_53403700.0.wav'
p2904
(lp2905
I0
aI20
asS'c22_15_50640430.0_50641130.0.wav'
p2906
(lp2907
I0
aI11
asS'15_16_36657.98_36659.22.wav'
p2908
(lp2909
I0
aI20
asS'c22_15_50657680.0_50658680.0.wav'
p2910
(lp2911
I0
aI20
asS'15_16_43191.21_43191.86.wav'
p2912
(lp2913
I0
aI22
asS'C25_08_28658.7_28659.47.wav'
p2914
(lp2915
I0
aI22
asS'04_08_28801.32_28802.06.wav'
p2916
(lp2917
I0
aI20
asS'15_16_46893.39_46894.0.wav'
p2918
(lp2919
I0
aI11
asS'04_08_3466.93_3468.64.wav'
p2920
(lp2921
I0
aI9
asS'C25_08_14884.06_14884.8.wav'
p2922
(lp2923
I0
aI11
asS'15_16_7196.51_7197.26.wav'
p2924
(lp2925
I0
aI11
asS'15_16_37159.92_37160.6.wav'
p2926
(lp2927
I0
aI31
asS'23_15_25815.95_25816.84.wav'
p2928
(lp2929
I0
aI22
asS'15_16_46571.09_46572.56.wav'
p2930
(lp2931
I0
aI11
asS'15_16_45939.6_45940.24.wav'
p2932
(lp2933
I0
aI22
asS'15_16_6645.95_6646.75.wav'
p2934
(lp2935
I0
aI11
asS'15_16_31342.62_31343.62.wav'
p2936
(lp2937
I0
aI22
asS'c22_15_57487330.0_57487950.0.wav'
p2938
(lp2939
I0
aI20
asS'C25_08_17230.46_17231.47.wav'
p2940
(lp2941
I0
aI11
asS'15_16_217.95_219.26.wav'
p2942
(lp2943
I0
aI33
asS'C25_08_21366.5_21367.52.wav'
p2944
(lp2945
I0
aI22
asS'c15_16_27472.73_27474.18.wav'
p2946
(lp2947
I0
aI11
asS'c15_16_13726.31_13726.91.wav'
p2948
(lp2949
I0
aI11
asS'C25_08_24368.16_24370.02.wav'
p2950
(lp2951
I0
aI20
asS'04_08_34910.49_34911.64.wav'
p2952
(lp2953
I0
aI11
asS'c22_15_48235330.0_48236990.0.wav'
p2954
(lp2955
I0
aI11
asS'c22_15_52652700.0_52653300.0.wav'
p2956
(lp2957
I0
aI20
asS'C25_08_30049.88_30050.58.wav'
p2958
(lp2959
I0
aI0
asS'23_15_49003.16_49003.99.wav'
p2960
(lp2961
I0
aI27
asS'15_16_43934.38_43935.0.wav'
p2962
(lp2963
I0
aI9
asS'C25_08_21076.64_21077.26.wav'
p2964
(lp2965
I0
aI20
asS'15_16_15160.82_15161.82.wav'
p2966
(lp2967
I0
aI22
asS'c15_16_20632.19_20632.79.wav'
p2968
(lp2969
I0
aI22
asS'C25_08_8096.42_8097.02.wav'
p2970
(lp2971
I0
aI0
asS'C25_08_29571.24_29572.19.wav'
p2972
(lp2973
I0
aI11
asS'c22_15_49187610.0_49188450.0.wav'
p2974
(lp2975
I0
aI0
asS'c15_16_14039.44_14040.44.wav'
p2976
(lp2977
I0
aI11
asS'23_15_3244.93_3245.91.wav'
p2978
(lp2979
I0
aI27
asS'c15_16_5606.21_5606.81.wav'
p2980
(lp2981
I0
aI18
asS'04_08_34071.24_34072.12.wav'
p2982
(lp2983
I0
aI9
asS'04_08_8780.98_8781.59.wav'
p2984
(lp2985
I0
aI31
asS'c15_16_35679.77_35681.5.wav'
p2986
(lp2987
I0
aI22
asS'15_16_39614.26_39615.02.wav'
p2988
(lp2989
I0
aI20
asS'04_08_40363.27_40363.89.wav'
p2990
(lp2991
I0
aI22
asS'C25_08_1125.15_1125.92.wav'
p2992
(lp2993
I0
aI22
asS'c15_16_26394.36_26395.42.wav'
p2994
(lp2995
I0
aI22
asS'c15_16_14793.23_14794.39.wav'
p2996
(lp2997
I0
aI11
asS'15_16_46077.39_46079.34.wav'
p2998
(lp2999
I0
aI11
asS'15_16_31008.11_31009.3.wav'
p3000
(lp3001
I0
aI11
asS'15_16_804.0_804.61.wav'
p3002
(lp3003
I0
aI11
asS'c22_15_2641220.0_2642330.0.wav'
p3004
(lp3005
I0
aI20
asS'04_08_19037.86_19038.6.wav'
p3006
(lp3007
I0
aI20
asS'c15_16_21889.14_21889.74.wav'
p3008
(lp3009
I0
aI11
asS'c22_15_57351240.0_57352370.0.wav'
p3010
(lp3011
I0
aI9
asS'c15_16_29910.31_29911.39.wav'
p3012
(lp3013
I0
aI9
asS'23_15_2615.05_2616.4.wav'
p3014
(lp3015
I0
aI22
asS'C25_08_9415.32_9416.75.wav'
p3016
(lp3017
I0
aI33
asS'04_08_35035.84_35037.84.wav'
p3018
(lp3019
I0
aI0
asS'15_16_41445.11_41447.39.wav'
p3020
(lp3021
I0
aI27
asS'c15_16_30670.86_30671.46.wav'
p3022
(lp3023
I0
aI22
asS'c22_15_50798100.0_50799700.0.wav'
p3024
(lp3025
I0
aI11
asS'c22_15_1069230.0_1069830.0.wav'
p3026
(lp3027
I0
aI11
asS'c15_16_35834.84_35836.63.wav'
p3028
(lp3029
I0
aI11
asS'23_15_1222.23_1223.17.wav'
p3030
(lp3031
I0
aI22
asS'c22_15_49342090.0_49342710.0.wav'
p3032
(lp3033
I0
aI20
asS'23_15_2186.12_2186.77.wav'
p3034
(lp3035
I0
aI22
asS'04_08_43875.87_43876.48.wav'
p3036
(lp3037
I0
aI11
asS'15_16_2631.59_2632.25.wav'
p3038
(lp3039
I0
aI20
asS'c22_15_48271170.0_48272210.0.wav'
p3040
(lp3041
I0
aI18
asS'15_16_34565.19_34566.37.wav'
p3042
(lp3043
I0
aI27
asS'04_08_34912.64_34913.26.wav'
p3044
(lp3045
I0
aI22
asS'C25_08_21509.51_21511.14.wav'
p3046
(lp3047
I0
aI9
asS'15_16_45870.54_45872.39.wav'
p3048
(lp3049
I0
aI22
asS'c15_16_21794.7_21798.84.wav'
p3050
(lp3051
I0
aI11
asS'c15_16_27166.28_27167.2.wav'
p3052
(lp3053
I0
aI9
asS'23_15_40885.94_40886.8.wav'
p3054
(lp3055
I0
aI9
asS'23_15_12664.65_12665.25.wav'
p3056
(lp3057
I0
aI11
asS'C25_08_292.09_292.69.wav'
p3058
(lp3059
I0
aI9
asS'23_15_34967.47_34968.27.wav'
p3060
(lp3061
I0
aI18
asS'c22_15_5331260.0_5331910.0.wav'
p3062
(lp3063
I0
aI22
asS'C25_08_18031.8_18032.43.wav'
p3064
(lp3065
I0
aI9
asS'c22_15_48959260.0_48960640.0.wav'
p3066
(lp3067
I0
aI31
asS'c15_16_3989.53_3990.33.wav'
p3068
(lp3069
I0
aI11
asS'c22_15_57038400.0_57039460.0.wav'
p3070
(lp3071
I0
aI33
asS'c15_16_10911.59_10912.19.wav'
p3072
(lp3073
I0
aI11
asS'c22_15_53381910.0_53383710.0.wav'
p3074
(lp3075
I0
aI9
asS'15_16_8641.34_8642.91.wav'
p3076
(lp3077
I0
aI22
asS'23_15_8693.21_8694.53.wav'
p3078
(lp3079
I0
aI22
asS'C25_08_21121.83_21122.47.wav'
p3080
(lp3081
I0
aI20
asS'c15_16_10998.38_10999.38.wav'
p3082
(lp3083
I0
aI11
asS'04_08_1600.99_1602.07.wav'
p3084
(lp3085
I0
aI29
asS'c15_16_25578.6_25579.25.wav'
p3086
(lp3087
I0
aI11
asS'23_15_33833.01_33833.79.wav'
p3088
(lp3089
I0
aI33
asS'C25_08_56097.47_56098.73.wav'
p3090
(lp3091
I0
aI11
asS'23_15_9219.28_9219.95.wav'
p3092
(lp3093
I0
aI22
asS'15_16_9971.93_9972.53.wav'
p3094
(lp3095
I0
aI18
asS'C25_08_21949.91_21950.97.wav'
p3096
(lp3097
I0
aI11
asS'23_15_39344.84_39348.24.wav'
p3098
(lp3099
I0
aI22
asS'c15_16_30795.16_30795.76.wav'
p3100
(lp3101
I0
aI20
asS'23_15_38364.7_38365.67.wav'
p3102
(lp3103
I0
aI11
asS'23_15_39930.63_39931.29.wav'
p3104
(lp3105
I0
aI9
asS'23_15_21748.15_21748.86.wav'
p3106
(lp3107
I0
aI11
asS'15_16_7585.51_7586.44.wav'
p3108
(lp3109
I0
aI33
asS'c22_15_53984250.0_53984970.0.wav'
p3110
(lp3111
I0
aI11
asS'c15_16_27570.98_27571.98.wav'
p3112
(lp3113
I0
aI11
asS'C25_08_9554.31_9554.91.wav'
p3114
(lp3115
I0
aI22
asS'c22_15_57019800.0_57020420.0.wav'
p3116
(lp3117
I0
aI22
asS'04_08_35408.44_35409.17.wav'
p3118
(lp3119
I0
aI22
asS'c22_15_56969280.0_56971310.0.wav'
p3120
(lp3121
I0
aI22
asS'15_16_4977.13_4978.13.wav'
p3122
(lp3123
I0
aI22
asS'c15_16_24786.8_24787.4.wav'
p3124
(lp3125
I0
aI11
asS'c15_16_3823.79_3824.4.wav'
p3126
(lp3127
I0
aI22
asS'04_08_34663.8_34664.61.wav'
p3128
(lp3129
I0
aI11
asS'c15_16_24199.56_24201.6.wav'
p3130
(lp3131
I0
aI22
asS'15_16_2596.44_2597.34.wav'
p3132
(lp3133
I0
aI20
asS'c15_16_3856.74_3857.74.wav'
p3134
(lp3135
I0
aI11
asS'23_15_12987.53_12988.89.wav'
p3136
(lp3137
I0
aI22
asS'c15_16_18052.25_18052.86.wav'
p3138
(lp3139
I0
aI11
asS'c22_15_52166840.0_52167450.0.wav'
p3140
(lp3141
I0
aI18
asS'23_15_36800.56_36801.69.wav'
p3142
(lp3143
I0
aI11
asS'15_16_45908.66_45909.26.wav'
p3144
(lp3145
I0
aI0
asS'C25_08_23864.63_23865.23.wav'
p3146
(lp3147
I0
aI0
asS'15_16_45107.43_45108.31.wav'
p3148
(lp3149
I0
aI20
asS'23_15_28070.21_28072.14.wav'
p3150
(lp3151
I0
aI20
asS'C25_08_49436.81_49438.63.wav'
p3152
(lp3153
I0
aI11
asS'04_08_34881.25_34882.71.wav'
p3154
(lp3155
I0
aI0
asS'23_15_2247.24_2248.46.wav'
p3156
(lp3157
I0
aI9
asS'23_15_8082.27_8083.01.wav'
p3158
(lp3159
I0
aI11
asS'23_15_24142.03_24143.1.wav'
p3160
(lp3161
I0
aI11
asS'04_08_47688.3_47689.01.wav'
p3162
(lp3163
I0
aI0
asS'C25_08_22505.42_22506.44.wav'
p3164
(lp3165
I0
aI0
asS'c22_15_46256280.0_46257150.0.wav'
p3166
(lp3167
I0
aI20
asS'c15_16_31144.06_31145.05.wav'
p3168
(lp3169
I0
aI29
asS'C25_08_18541.25_18542.11.wav'
p3170
(lp3171
I0
aI22
asS'c22_15_47775710.0_47776350.0.wav'
p3172
(lp3173
I0
aI9
asS'15_16_12788.86_12792.42.wav'
p3174
(lp3175
I0
aI11
asS'04_08_35862.21_35863.21.wav'
p3176
(lp3177
I0
aI20
asS'15_16_11144.84_11145.53.wav'
p3178
(lp3179
I0
aI22
asS'23_15_25431.4_25432.0.wav'
p3180
(lp3181
I0
aI18
asS'15_16_39667.13_39667.73.wav'
p3182
(lp3183
I0
aI20
asS'c15_16_24182.04_24182.86.wav'
p3184
(lp3185
I0
aI22
asS'04_08_43479.17_43479.77.wav'
p3186
(lp3187
I0
aI22
asS'C25_08_24139.9_24140.64.wav'
p3188
(lp3189
I0
aI11
asS'C25_08_28941.91_28944.76.wav'
p3190
(lp3191
I0
aI22
asS'23_15_21592.03_21593.07.wav'
p3192
(lp3193
I0
aI22
asS'15_16_34412.54_34413.48.wav'
p3194
(lp3195
I0
aI9
asS'04_08_13754.03_13754.86.wav'
p3196
(lp3197
I0
aI9
asS'c22_15_51470610.0_51472550.0.wav'
p3198
(lp3199
I0
aI11
asS'04_08_39583.53_39584.63.wav'
p3200
(lp3201
I0
aI11
asS'04_08_3415.81_3419.87.wav'
p3202
(lp3203
I0
aI11
asS'15_16_47135.63_47136.26.wav'
p3204
(lp3205
I0
aI11
asS'c22_15_50183720.0_50184320.0.wav'
p3206
(lp3207
I0
aI22
asS'c22_15_48015650.0_48016500.0.wav'
p3208
(lp3209
I0
aI20
asS'c22_15_52818370.0_52818970.0.wav'
p3210
(lp3211
I0
aI22
asS'C25_08_18081.28_18081.92.wav'
p3212
(lp3213
I0
aI22
asS'c22_15_53141140.0_53146380.0.wav'
p3214
(lp3215
I0
aI11
asS'04_08_34101.6_34105.4.wav'
p3216
(lp3217
I0
aI11
asS'c22_15_49254080.0_49256070.0.wav'
p3218
(lp3219
I0
aI22
asS'C25_08_20049.46_20051.1.wav'
p3220
(lp3221
I0
aI22
asS'c22_15_1311170.0_1315580.0.wav'
p3222
(lp3223
I0
aI11
asS'23_15_23221.15_23223.05.wav'
p3224
(lp3225
I0
aI11
asS'C25_08_29486.9_29487.6.wav'
p3226
(lp3227
I0
aI11
asS'c22_15_49821590.0_49822200.0.wav'
p3228
(lp3229
I0
aI11
asS'c15_16_17011.56_17013.15.wav'
p3230
(lp3231
I0
aI11
asS'C25_08_23779.0_23780.13.wav'
p3232
(lp3233
I0
aI11
asS'c22_15_46068870.0_46069510.0.wav'
p3234
(lp3235
I0
aI11
asS'15_16_31372.35_31374.15.wav'
p3236
(lp3237
I0
aI11
asS'c15_16_31862.72_31863.32.wav'
p3238
(lp3239
I0
aI11
asS'15_16_31894.57_31899.78.wav'
p3240
(lp3241
I0
aI22
asS'23_15_34325.01_34325.83.wav'
p3242
(lp3243
I0
aI11
asS'c15_16_21149.29_21151.49.wav'
p3244
(lp3245
I0
aI11
asS'C25_08_27302.23_27305.42.wav'
p3246
(lp3247
I0
aI22
asS'04_08_17541.13_17542.27.wav'
p3248
(lp3249
I0
aI11
asS'15_16_44994.55_44995.32.wav'
p3250
(lp3251
I0
aI29
asS'23_15_30887.7_30888.46.wav'
p3252
(lp3253
I0
aI31
asS'C25_08_57277.98_57278.58.wav'
p3254
(lp3255
I0
aI22
asS'C25_08_14176.69_14177.73.wav'
p3256
(lp3257
I0
aI11
asS'C25_08_26899.07_26900.24.wav'
p3258
(lp3259
I0
aI20
asS'04_08_34224.27_34227.51.wav'
p3260
(lp3261
I0
aI22
asS'c15_16_12010.21_12011.04.wav'
p3262
(lp3263
I0
aI9
asS'C25_08_48640.39_48641.26.wav'
p3264
(lp3265
I0
aI9
asS'23_15_47629.76_47630.52.wav'
p3266
(lp3267
I0
aI22
asS'04_08_46496.32_46497.24.wav'
p3268
(lp3269
I0
aI22
asS'c15_16_1468.55_1469.31.wav'
p3270
(lp3271
I0
aI18
asS'04_08_47844.42_47845.02.wav'
p3272
(lp3273
I0
aI18
asS'C25_08_1119.98_1121.19.wav'
p3274
(lp3275
I0
aI11
asS'c15_16_19734.28_19735.33.wav'
p3276
(lp3277
I0
aI9
asS'04_08_34538.24_34539.95.wav'
p3278
(lp3279
I0
aI22
asS'c15_16_6669.04_6670.2.wav'
p3280
(lp3281
I0
aI11
asS'c22_15_53301300.0_53302620.0.wav'
p3282
(lp3283
I0
aI9
asS'04_08_13684.67_13685.27.wav'
p3284
(lp3285
I0
aI22
asS'15_16_39807.73_39809.51.wav'
p3286
(lp3287
I0
aI20
asS'23_15_18580.28_18581.09.wav'
p3288
(lp3289
I0
aI33
asS'C25_08_16222.07_16223.09.wav'
p3290
(lp3291
I0
aI22
asS'c22_15_53229770.0_53230370.0.wav'
p3292
(lp3293
I0
aI20
asS'23_15_48451.28_48451.92.wav'
p3294
(lp3295
I0
aI20
asS'23_15_47876.71_47877.72.wav'
p3296
(lp3297
I0
aI11
asS'15_16_38887.3_38888.99.wav'
p3298
(lp3299
I0
aI11
asS'04_08_29223.68_29224.52.wav'
p3300
(lp3301
I0
aI20
asS'23_15_19957.74_19959.05.wav'
p3302
(lp3303
I0
aI33
asS'15_16_3768.47_3771.19.wav'
p3304
(lp3305
I0
aI22
asS'c22_15_49281290.0_49282310.0.wav'
p3306
(lp3307
I0
aI11
asS'04_08_43477.77_43478.37.wav'
p3308
(lp3309
I0
aI22
asS'c15_16_11816.52_11817.4.wav'
p3310
(lp3311
I0
aI11
asS'04_08_44308.67_44310.11.wav'
p3312
(lp3313
I0
aI22
asS'04_08_46607.92_46608.57.wav'
p3314
(lp3315
I0
aI22
asS'c15_16_5385.29_5385.89.wav'
p3316
(lp3317
I0
aI22
asS'23_15_39361.4_39362.02.wav'
p3318
(lp3319
I0
aI22
asS'C25_08_11261.9_11262.56.wav'
p3320
(lp3321
I0
aI22
asS'c22_15_4083090.0_4083910.0.wav'
p3322
(lp3323
I0
aI31
asS'15_16_13175.3_13175.9.wav'
p3324
(lp3325
I0
aI11
asS'23_15_26849.37_26850.09.wav'
p3326
(lp3327
I0
aI9
asS'15_16_42880.43_42881.34.wav'
p3328
(lp3329
I0
aI11
asS'23_15_8104.84_8105.64.wav'
p3330
(lp3331
I0
aI29
asS'c22_15_49010550.0_49011160.0.wav'
p3332
(lp3333
I0
aI22
asS'04_08_45380.83_45381.5.wav'
p3334
(lp3335
I0
aI33
asS'c22_15_6162330.0_6162930.0.wav'
p3336
(lp3337
I0
aI33
asS'C25_08_11350.54_11351.34.wav'
p3338
(lp3339
I0
aI11
asS'c22_15_50641930.0_50642650.0.wav'
p3340
(lp3341
I0
aI11
asS'c22_15_1321820.0_1323700.0.wav'
p3342
(lp3343
I0
aI18
asS'15_16_33518.85_33519.85.wav'
p3344
(lp3345
I0
aI9
asS'c15_16_20530.7_20532.01.wav'
p3346
(lp3347
I0
aI11
asS'23_15_25633.82_25634.63.wav'
p3348
(lp3349
I0
aI11
asS'23_15_17465.77_17468.75.wav'
p3350
(lp3351
I0
aI22
asS'15_16_32368.21_32368.81.wav'
p3352
(lp3353
I0
aI11
asS'23_15_14883.58_14884.99.wav'
p3354
(lp3355
I0
aI22
asS'15_16_44818.96_44820.0.wav'
p3356
(lp3357
I0
aI20
asS'04_08_34689.38_34690.64.wav'
p3358
(lp3359
I0
aI22
asS'04_08_34015.54_34016.61.wav'
p3360
(lp3361
I0
aI22
asS'04_08_34209.5_34210.9.wav'
p3362
(lp3363
I0
aI22
asS'04_08_42532.52_42533.29.wav'
p3364
(lp3365
I0
aI22
asS'23_15_20875.9_20876.96.wav'
p3366
(lp3367
I0
aI11
asS'c22_15_53639120.0_53639780.0.wav'
p3368
(lp3369
I0
aI31
asS'c15_16_11840.11_11840.71.wav'
p3370
(lp3371
I0
aI9
asS'23_15_46225.31_46225.91.wav'
p3372
(lp3373
I0
aI29
asS'C25_08_33095.42_33097.96.wav'
p3374
(lp3375
I0
aI9
asS'c15_16_44573.07_44573.82.wav'
p3376
(lp3377
I0
aI11
asS'C25_08_584.57_585.29.wav'
p3378
(lp3379
I0
aI22
asS'04_08_48142.19_48142.92.wav'
p3380
(lp3381
I0
aI11
asS'c15_16_31638.45_31639.05.wav'
p3382
(lp3383
I0
aI11
asS'c22_15_57342390.0_57343120.0.wav'
p3384
(lp3385
I0
aI11
asS'C25_08_56456.77_56457.38.wav'
p3386
(lp3387
I0
aI22
asS'15_16_44443.45_44444.25.wav'
p3388
(lp3389
I0
aI22
asS'04_08_33905.98_33906.64.wav'
p3390
(lp3391
I0
aI33
asS'23_15_5449.19_5449.85.wav'
p3392
(lp3393
I0
aI22
asS'c22_15_53800550.0_53804060.0.wav'
p3394
(lp3395
I0
aI20
asS'15_16_42489.82_42490.49.wav'
p3396
(lp3397
I0
aI11
asS'23_15_39298.97_39301.58.wav'
p3398
(lp3399
I0
aI22
asS'15_16_5318.58_5319.32.wav'
p3400
(lp3401
I0
aI22
asS'c22_15_50443900.0_50444520.0.wav'
p3402
(lp3403
I0
aI22
asS'c15_16_26792.33_26793.21.wav'
p3404
(lp3405
I0
aI20
asS'23_15_39332.99_39336.33.wav'
p3406
(lp3407
I0
aI31
asS'04_08_46498.37_46499.71.wav'
p3408
(lp3409
I0
aI22
asS'c15_16_31190.74_31191.39.wav'
p3410
(lp3411
I0
aI33
asS'23_15_41510.6_41511.72.wav'
p3412
(lp3413
I0
aI11
asS'C25_08_55749.36_55751.37.wav'
p3414
(lp3415
I0
aI11
asS'15_16_6692.15_6692.82.wav'
p3416
(lp3417
I0
aI20
asS'C25_08_39329.32_39329.93.wav'
p3418
(lp3419
I0
aI22
asS'15_16_125.33_126.06.wav'
p3420
(lp3421
I0
aI22
asS'15_16_36734.49_36735.87.wav'
p3422
(lp3423
I0
aI20
asS'C25_08_23485.98_23486.58.wav'
p3424
(lp3425
I0
aI22
asS'23_15_40615.94_40617.48.wav'
p3426
(lp3427
I0
aI22
asS'23_15_40742.71_40743.31.wav'
p3428
(lp3429
I0
aI11
asS'15_16_2143.47_2144.07.wav'
p3430
(lp3431
I0
aI22
asS'04_08_17147.67_17148.83.wav'
p3432
(lp3433
I0
aI22
asS'c22_15_57064780.0_57066290.0.wav'
p3434
(lp3435
I0
aI22
asS'04_08_30698.71_30700.83.wav'
p3436
(lp3437
I0
aI11
asS'15_16_44319.0_44319.74.wav'
p3438
(lp3439
I0
aI20
asS'c15_16_22177.33_22178.1.wav'
p3440
(lp3441
I0
aI20
asS'04_08_40386.4_40388.22.wav'
p3442
(lp3443
I0
aI9
asS'23_15_17919.98_17921.9.wav'
p3444
(lp3445
I0
aI33
asS'15_16_42649.03_42649.63.wav'
p3446
(lp3447
I0
aI22
asS'23_15_9834.77_9835.48.wav'
p3448
(lp3449
I0
aI9
asS'c15_16_20712.2_20713.28.wav'
p3450
(lp3451
I0
aI18
asS'15_16_17297.32_17298.3.wav'
p3452
(lp3453
I0
aI11
asS'23_15_832.54_833.17.wav'
p3454
(lp3455
I0
aI22
asS'c15_16_14848.11_14848.72.wav'
p3456
(lp3457
I0
aI22
asS'C25_08_28864.09_28864.97.wav'
p3458
(lp3459
I0
aI22
asS'C25_08_14999.48_15000.29.wav'
p3460
(lp3461
I0
aI11
asS'c15_16_14243.84_14244.73.wav'
p3462
(lp3463
I0
aI20
asS'04_08_837.24_839.19.wav'
p3464
(lp3465
I0
aI22
asS'C25_08_987.34_988.01.wav'
p3466
(lp3467
I0
aI22
asS'c22_15_57045500.0_57047680.0.wav'
p3468
(lp3469
I0
aI22
asS'04_08_32191.16_32191.87.wav'
p3470
(lp3471
I0
aI22
asS'15_16_34649.43_34650.11.wav'
p3472
(lp3473
I0
aI31
asS'C25_08_22247.94_22249.44.wav'
p3474
(lp3475
I0
aI33
asS'c22_15_51266290.0_51266910.0.wav'
p3476
(lp3477
I0
aI22
asS'04_08_44998.53_44999.41.wav'
p3478
(lp3479
I0
aI22
asS'15_16_32347.47_32348.17.wav'
p3480
(lp3481
I0
aI22
asS'C25_08_6654.02_6654.96.wav'
p3482
(lp3483
I0
aI22
asS'c22_15_51279100.0_51281340.0.wav'
p3484
(lp3485
I0
aI22
asS'C25_08_4337.27_4337.87.wav'
p3486
(lp3487
I0
aI22
asS'c15_16_7180.75_7181.35.wav'
p3488
(lp3489
I0
aI11
asS'C25_08_16226.46_16227.1.wav'
p3490
(lp3491
I0
aI20
asS'C25_08_44897.36_44898.73.wav'
p3492
(lp3493
I0
aI11
asS'C25_08_3167.32_3167.92.wav'
p3494
(lp3495
I0
aI22
asS'c22_15_57383760.0_57384900.0.wav'
p3496
(lp3497
I0
aI22
asS'04_08_35723.69_35724.33.wav'
p3498
(lp3499
I0
aI11
asS'23_15_56357.38_56358.78.wav'
p3500
(lp3501
I0
aI33
asS'c15_16_21215.35_21215.95.wav'
p3502
(lp3503
I0
aI20
asS'23_15_44455.94_44457.6.wav'
p3504
(lp3505
I0
aI9
asS'C25_08_19568.02_19568.62.wav'
p3506
(lp3507
I0
aI20
asS'c15_16_22033.89_22034.49.wav'
p3508
(lp3509
I0
aI31
asS'23_15_48564.57_48565.62.wav'
p3510
(lp3511
I0
aI18
asS'23_15_18279.47_18281.16.wav'
p3512
(lp3513
I0
aI22
asS'04_08_46579.16_46581.51.wav'
p3514
(lp3515
I0
aI11
asS'C25_08_7097.45_7098.15.wav'
p3516
(lp3517
I0
aI33
asS'15_16_8879.12_8880.71.wav'
p3518
(lp3519
I0
aI11
asS'C25_08_44365.64_44367.49.wav'
p3520
(lp3521
I0
aI22
asS'c22_15_45846430.0_45847730.0.wav'
p3522
(lp3523
I0
aI11
asS'c15_16_26317.51_26320.61.wav'
p3524
(lp3525
I0
aI33
asS'C25_08_29266.82_29267.43.wav'
p3526
(lp3527
I0
aI11
asS'15_16_45895.15_45896.12.wav'
p3528
(lp3529
I0
aI9
asS'c22_15_57009550.0_57012280.0.wav'
p3530
(lp3531
I0
aI31
asS'23_15_37752.62_37753.22.wav'
p3532
(lp3533
I0
aI11
asS'c15_16_24466.88_24467.58.wav'
p3534
(lp3535
I0
aI11
asS'C25_08_44833.33_44834.19.wav'
p3536
(lp3537
I0
aI22
asS'23_15_33307.68_33308.68.wav'
p3538
(lp3539
I0
aI11
asS'c15_16_14527.67_14528.45.wav'
p3540
(lp3541
I0
aI18
asS'23_15_3626.03_3628.56.wav'
p3542
(lp3543
I0
aI22
asS'c15_16_26127.46_26128.06.wav'
p3544
(lp3545
I0
aI18
asS'c15_16_14104.87_14106.04.wav'
p3546
(lp3547
I0
aI11
asS'C25_08_27036.92_27037.92.wav'
p3548
(lp3549
I0
aI20
asS'c22_15_53190000.0_53190940.0.wav'
p3550
(lp3551
I0
aI9
asS'15_16_36999.39_36999.99.wav'
p3552
(lp3553
I0
aI22
asS'23_15_4018.78_4019.38.wav'
p3554
(lp3555
I0
aI22
asS'c22_15_51514930.0_51515530.0.wav'
p3556
(lp3557
I0
aI33
asS'15_16_14205.68_14206.51.wav'
p3558
(lp3559
I0
aI22
asS'c22_15_55627350.0_55628840.0.wav'
p3560
(lp3561
I0
aI9
asS'C25_08_43708.72_43709.51.wav'
p3562
(lp3563
I0
aI22
asS'04_08_16463.66_16464.26.wav'
p3564
(lp3565
I0
aI0
asS'04_08_34065.95_34067.35.wav'
p3566
(lp3567
I0
aI22
asS'15_16_44402.1_44403.02.wav'
p3568
(lp3569
I0
aI11
asS'c22_15_53627200.0_53628210.0.wav'
p3570
(lp3571
I0
aI22
asS'04_08_29177.76_29178.37.wav'
p3572
(lp3573
I0
aI11
asS'C25_08_30855.78_30857.53.wav'
p3574
(lp3575
I0
aI11
asS'23_15_48922.03_48922.63.wav'
p3576
(lp3577
I0
aI20
asS'15_16_220.09_220.78.wav'
p3578
(lp3579
I0
aI22
asS'C25_08_23819.48_23821.13.wav'
p3580
(lp3581
I0
aI0
asS'04_08_47431.32_47431.93.wav'
p3582
(lp3583
I0
aI20
asS'15_16_11952.66_11953.89.wav'
p3584
(lp3585
I0
aI33
asS'C25_08_1139.45_1143.05.wav'
p3586
(lp3587
I0
aI20
asS'c15_16_19576.42_19577.42.wav'
p3588
(lp3589
I0
aI29
asS'c15_16_25514.04_25514.64.wav'
p3590
(lp3591
I0
aI11
asS'23_15_22374.31_22374.97.wav'
p3592
(lp3593
I0
aI11
asS'c22_15_47857790.0_47858530.0.wav'
p3594
(lp3595
I0
aI11
asS'c15_16_20714.45_20715.1.wav'
p3596
(lp3597
I0
aI11
asS'15_16_4940.1_4940.89.wav'
p3598
(lp3599
I0
aI11
asS'c15_16_44386.53_44387.2.wav'
p3600
(lp3601
I0
aI22
as.