(lp1
S'c15_16_24733.67_24734.83.wav'
p2
aS'C25_08_19154.25_19155.68.wav'
p3
aS'04_08_2497.14_2498.84.wav'
p4
aS'C25_08_29804.07_29806.84.wav'
p5
aS'C25_08_15808.18_15808.78.wav'
p6
aS'23_15_1408.71_1410.52.wav'
p7
aS'04_08_46677.64_46679.25.wav'
p8
aS'c15_16_23051.4_23052.13.wav'
p9
aS'23_15_38112.04_38113.29.wav'
p10
aS'15_16_44108.13_44108.73.wav'
p11
aS'15_16_1971.41_1972.01.wav'
p12
aS'23_15_46059.61_46060.39.wav'
p13
aS'23_15_9225.06_9227.45.wav'
p14
aS'04_08_8301.63_8303.81.wav'
p15
aS'c22_15_50771090.0_50771690.0.wav'
p16
aS'c15_16_20595.86_20596.68.wav'
p17
aS'C25_08_19170.84_19171.44.wav'
p18
aS'c22_15_50517370.0_50518530.0.wav'
p19
aS'c22_15_47416930.0_47417670.0.wav'
p20
aS'15_16_37336.88_37337.56.wav'
p21
aS'15_16_42060.03_42061.79.wav'
p22
aS'23_15_10105.99_10106.59.wav'
p23
aS'c15_16_14263.32_14263.92.wav'
p24
aS'23_15_56220.44_56221.66.wav'
p25
aS'c22_15_51918770.0_51919380.0.wav'
p26
aS'23_15_56429.48_56434.67.wav'
p27
aS'23_15_56408.08_56408.77.wav'
p28
aS'04_08_13709.63_13710.69.wav'
p29
aS'c15_16_27578.2_27579.39.wav'
p30
aS'c15_16_22181.21_22181.81.wav'
p31
aS'C25_08_3503.8_3505.93.wav'
p32
aS'04_08_44308.67_44310.11.wav'
p33
aS'C25_08_16495.75_16496.35.wav'
p34
aS'c15_16_21696.45_21699.16.wav'
p35
aS'C25_08_27593.37_27594.39.wav'
p36
aS'23_15_48030.53_48031.54.wav'
p37
aS'c15_16_6847.18_6847.78.wav'
p38
aS'23_15_14161.17_14162.95.wav'
p39
aS'04_08_47672.37_47673.72.wav'
p40
aS'04_08_46478.41_46479.37.wav'
p41
aS'15_16_12798.29_12799.55.wav'
p42
aS'c22_15_50004360.0_50005140.0.wav'
p43
aS'C25_08_33125.48_33126.48.wav'
p44
aS'c22_15_54020680.0_54021280.0.wav'
p45
aS'c15_16_10871.85_10872.45.wav'
p46
aS'15_16_8904.41_8905.66.wav'
p47
aS'04_08_28659.9_28661.14.wav'
p48
aS'15_16_114.27_115.05.wav'
p49
aS'04_08_25896.36_25896.96.wav'
p50
aS'23_15_38057.81_38058.41.wav'
p51
aS'04_08_33758.34_33760.64.wav'
p52
aS'15_16_37430.0_37430.61.wav'
p53
aS'23_15_41123.39_41124.39.wav'
p54
aS'04_08_28329.78_28330.38.wav'
p55
aS'c15_16_48355.0_48355.93.wav'
p56
aS'23_15_25094.57_25095.17.wav'
p57
aS'23_15_2681.88_2682.89.wav'
p58
aS'15_16_10210.64_10211.95.wav'
p59
aS'23_15_20875.9_20876.96.wav'
p60
aS'c22_15_57535890.0_57537500.0.wav'
p61
aS'c22_15_52281700.0_52282300.0.wav'
p62
aS'c22_15_1368080.0_1368840.0.wav'
p63
aS'15_16_44443.45_44444.25.wav'
p64
aS'04_08_3423.75_3424.58.wav'
p65
aS'04_08_31860.78_31862.22.wav'
p66
aS'c22_15_46183500.0_46184450.0.wav'
p67
aS'04_08_30586.0_30587.11.wav'
p68
aS'15_16_38452.52_38453.39.wav'
p69
aS'c22_15_53284100.0_53290000.0.wav'
p70
aS'c15_16_20712.2_20713.28.wav'
p71
aS'15_16_16808.65_16809.25.wav'
p72
aS'15_16_59.26_59.86.wav'
p73
aS'04_08_471.3_472.4.wav'
p74
aS'23_15_1261.18_1261.78.wav'
p75
aS'15_16_44100.88_44101.48.wav'
p76
aS'c15_16_21874.85_21876.92.wav'
p77
aS'15_16_44907.98_44908.71.wav'
p78
aS'23_15_47664.76_47665.88.wav'
p79
aS'c15_16_20552.7_20553.3.wav'
p80
aS'23_15_13006.0_13007.24.wav'
p81
aS'15_16_37159.92_37160.6.wav'
p82
aS'c15_16_5606.21_5606.81.wav'
p83
aS'c15_16_35679.77_35681.5.wav'
p84
aS'15_16_39614.26_39615.02.wav'
p85
aS'c22_15_48271170.0_48272210.0.wav'
p86
aS'15_16_34565.19_34566.37.wav'
p87
aS'c15_16_21805.13_21805.73.wav'
p88
aS'c15_16_24199.56_24201.6.wav'
p89
aS'C25_08_28941.91_28944.76.wav'
p90
aS'23_15_21592.03_21593.07.wav'
p91
aS'c22_15_48015650.0_48016500.0.wav'
p92
aS'15_16_31894.57_31899.78.wav'
p93
aS'15_16_46706.0_46706.6.wav'
p94
aS'04_08_33905.98_33906.64.wav'
p95
aS'C25_08_39329.32_39329.93.wav'
p96
aS'C25_08_22247.94_22249.44.wav'
p97
aS'C25_08_19568.02_19568.62.wav'
p98
aS'C25_08_44365.64_44367.49.wav'
p99
aS'23_15_3626.03_3628.56.wav'
p100
aS'23_15_35737.5_35738.21.wav'
p101
aS'C25_08_31205.58_31206.18.wav'
p102
aS'15_16_44339.52_44340.12.wav'
p103
aS'15_16_9645.24_9646.24.wav'
p104
aS'15_16_9850.85_9851.85.wav'
p105
aS'C25_08_566.55_567.2.wav'
p106
aS'c22_15_53227420.0_53228970.0.wav'
p107
aS'c15_16_36567.25_36567.95.wav'
p108
aS'c22_15_53000150.0_53000750.0.wav'
p109
aS'04_08_1569.85_1570.45.wav'
p110
aS'c22_15_1007970.0_1009790.0.wav'
p111
aS'23_15_45527.35_45528.58.wav'
p112
aS'C25_08_23645.27_23645.96.wav'
p113
aS'C25_08_21951.78_21952.38.wav'
p114
aS'c15_16_9166.36_9168.34.wav'
p115
aS'c22_15_49907130.0_49907730.0.wav'
p116
aS'04_08_25054.65_25055.5.wav'
p117
aS'15_16_18587.88_18589.6.wav'
p118
aS'04_08_19503.74_19505.56.wav'
p119
aS'23_15_4460.71_4463.27.wav'
p120
aS'c22_15_1243800.0_1244400.0.wav'
p121
aS'23_15_26303.74_26304.34.wav'
p122
aS'04_08_44214.3_44214.9.wav'
p123
aS'23_15_45895.54_45896.37.wav'
p124
aS'c22_15_51752190.0_51752820.0.wav'
p125
aS'C25_08_17702.11_17702.71.wav'
p126
aS'C25_08_17283.85_17285.37.wav'
p127
aS'C25_08_7254.72_7255.52.wav'
p128
aS'c15_16_2909.68_2910.35.wav'
p129
aS'23_15_2934.7_2935.54.wav'
p130
aS'c22_15_55970460.0_55971480.0.wav'
p131
aS'c15_16_6789.15_6790.19.wav'
p132
aS'c15_16_25200.09_25200.96.wav'
p133
aS'c22_15_48840850.0_48841940.0.wav'
p134
aS'23_15_17666.22_17667.02.wav'
p135
aS'c15_16_34012.91_34013.55.wav'
p136
aS'04_08_28912.03_28912.63.wav'
p137
aS'c15_16_34184.64_34185.41.wav'
p138
aS'04_08_44028.83_44029.58.wav'
p139
aS'C25_08_49578.13_49578.73.wav'
p140
aS'c15_16_5878.46_5880.62.wav'
p141
aS'c22_15_53523440.0_53524740.0.wav'
p142
aS'c22_15_50637540.0_50638560.0.wav'
p143
aS'c22_15_57086560.0_57088900.0.wav'
p144
aS'C25_08_24742.31_24743.11.wav'
p145
aS'c22_15_53308350.0_53312230.0.wav'
p146
aS'04_08_25449.39_25451.19.wav'
p147
aS'04_08_35185.64_35186.24.wav'
p148
aS'c15_16_3284.14_3284.75.wav'
p149
aS'15_16_4752.49_4754.18.wav'
p150
aS'C25_08_21259.19_21259.79.wav'
p151
aS'15_16_43927.86_43928.79.wav'
p152
aS'C25_08_23723.55_23724.39.wav'
p153
aS'C25_08_16598.68_16600.83.wav'
p154
aS'04_08_35834.43_35835.03.wav'
p155
aS'04_08_48047.37_48047.97.wav'
p156
aS'c15_16_26315.87_26316.71.wav'
p157
aS'15_16_41415.7_41416.51.wav'
p158
aS'c15_16_22236.48_22237.2.wav'
p159
aS'c22_15_4115600.0_4116440.0.wav'
p160
aS'23_15_56189.93_56192.45.wav'
p161
aS'c15_16_33726.38_33727.65.wav'
p162
aS'c15_16_10848.54_10849.83.wav'
p163
aS'c15_16_3602.02_3603.82.wav'
p164
aS'23_15_46584.52_46585.33.wav'
p165
aS'c22_15_56454980.0_56457220.0.wav'
p166
aS'c15_16_30900.4_30901.0.wav'
p167
aS'c15_16_11485.88_11486.68.wav'
p168
aS'04_08_43422.37_43422.97.wav'
p169
aS'23_15_16543.76_16545.87.wav'
p170
aS'04_08_46523.41_46524.35.wav'
p171
aS'15_16_40389.08_40390.03.wav'
p172
aS'15_16_31519.29_31519.89.wav'
p173
aS'15_16_40964.66_40965.73.wav'
p174
aS'c15_16_35002.86_35003.63.wav'
p175
aS'c15_16_1821.52_1822.18.wav'
p176
aS'23_15_1496.66_1497.26.wav'
p177
aS'04_08_1802.43_1803.21.wav'
p178
aS'c22_15_51155790.0_51157310.0.wav'
p179
aS'C25_08_20874.23_20875.75.wav'
p180
aS'C25_08_49331.75_49332.35.wav'
p181
aS'23_15_20289.61_20293.95.wav'
p182
aS'04_08_5227.44_5228.05.wav'
p183
aS'15_16_40190.74_40191.4.wav'
p184
aS'c22_15_48767170.0_48767770.0.wav'
p185
aS'23_15_2492.98_2493.72.wav'
p186
aS'15_16_10044.22_10045.23.wav'
p187
aS'04_08_44660.8_44661.65.wav'
p188
aS'c15_16_26658.0_26659.04.wav'
p189
aS'C25_08_28287.52_28288.12.wav'
p190
aS'c22_15_4083090.0_4083910.0.wav'
p191
aS'04_08_28319.5_28323.63.wav'
p192
aS'c22_15_45297450.0_45298050.0.wav'
p193
aS'23_15_10746.48_10748.35.wav'
p194
aS'C25_08_29410.44_29411.92.wav'
p195
aS'15_16_15972.96_15973.57.wav'
p196
aS'c22_15_57394080.0_57395340.0.wav'
p197
aS'23_15_21825.3_21825.91.wav'
p198
aS'15_16_4980.48_4981.08.wav'
p199
aS'C25_08_21506.89_21507.49.wav'
p200
aS'23_15_4679.86_4681.33.wav'
p201
aS'04_08_34037.32_34038.0.wav'
p202
aS'15_16_2023.33_2023.93.wav'
p203
aS'04_08_34055.15_34055.88.wav'
p204
aS'c22_15_47237740.0_47238630.0.wav'
p205
aS'c22_15_1355090.0_1356010.0.wav'
p206
aS'15_16_37068.09_37068.69.wav'
p207
aS'C25_08_27343.6_27344.26.wav'
p208
aS'23_15_56198.95_56201.31.wav'
p209
aS'c15_16_19680.92_19681.97.wav'
p210
aS'C25_08_4512.23_4512.86.wav'
p211
aS'c22_15_51446770.0_51447400.0.wav'
p212
aS'15_16_42052.56_42053.16.wav'
p213
aS'C25_08_29978.92_29979.53.wav'
p214
aS'23_15_18438.82_18441.82.wav'
p215
aS'c22_15_726080.0_726710.0.wav'
p216
aS'c22_15_52977030.0_52977750.0.wav'
p217
aS'23_15_30175.58_30178.49.wav'
p218
aS'c22_15_48259340.0_48261750.0.wav'
p219
aS'15_16_4932.12_4933.12.wav'
p220
aS'C25_08_39235.23_39236.77.wav'
p221
aS'23_15_27882.04_27882.96.wav'
p222
aS'C25_08_16611.58_16613.04.wav'
p223
aS'c22_15_56879760.0_56880640.0.wav'
p224
aS'15_16_43076.35_43076.95.wav'
p225
aS'c22_15_49912120.0_49913190.0.wav'
p226
aS'C25_08_27189.29_27189.9.wav'
p227
aS'04_08_28631.89_28634.45.wav'
p228
aS'23_15_30841.44_30842.04.wav'
p229
aS'15_16_30006.76_30009.5.wav'
p230
aS'15_16_38417.67_38418.29.wav'
p231
aS'15_16_42495.57_42496.24.wav'
p232
aS'C25_08_24712.56_24713.16.wav'
p233
aS'c15_16_6018.93_6019.6.wav'
p234
aS'04_08_40966.72_40969.26.wav'
p235
aS'c15_16_9112.16_9112.84.wav'
p236
aS'23_15_46790.64_46791.24.wav'
p237
aS'15_16_44153.16_44153.87.wav'
p238
aS'c15_16_4723.5_4724.1.wav'
p239
aS'C25_08_39248.38_39249.31.wav'
p240
aS'C25_08_528.27_528.87.wav'
p241
aS'23_15_22454.95_22457.49.wav'
p242
aS'c22_15_53442830.0_53443450.0.wav'
p243
aS'c15_16_17640.59_17641.39.wav'
p244
aS'04_08_25883.18_25883.78.wav'
p245
aS'C25_08_19130.55_19131.16.wav'
p246
aS'23_15_48371.48_48372.88.wav'
p247
aS'04_08_29500.29_29501.15.wav'
p248
aS'15_16_39194.62_39195.68.wav'
p249
aS'c15_16_11669.31_11669.91.wav'
p250
aS'23_15_41152.77_41154.23.wav'
p251
aS'c22_15_50045750.0_50046460.0.wav'
p252
aS'C25_08_33084.04_33085.56.wav'
p253
aS'c22_15_40020.0_40620.0.wav'
p254
aS'c15_16_33731.16_33733.63.wav'
p255
aS'04_08_47964.09_47965.15.wav'
p256
aS'c22_15_720190.0_721140.0.wav'
p257
aS'c15_16_35837.81_35838.41.wav'
p258
aS'c22_15_48325680.0_48326300.0.wav'
p259
aS'15_16_41137.03_41138.88.wav'
p260
aS'C25_08_19466.38_19467.1.wav'
p261
aS'23_15_27672.53_27673.41.wav'
p262
aS'23_15_9555.3_9555.94.wav'
p263
aS'15_16_19168.1_19168.91.wav'
p264
aS'04_08_47844.42_47845.02.wav'
p265
aS'15_16_40660.21_40661.02.wav'
p266
aS'15_16_43699.34_43700.34.wav'
p267
aS'23_15_18498.28_18499.32.wav'
p268
aS'c15_16_15332.01_15332.61.wav'
p269
aS'C25_08_25300.27_25300.88.wav'
p270
aS'04_08_43533.77_43534.37.wav'
p271
aS'c15_16_26256.12_26257.01.wav'
p272
aS'c15_16_24731.62_24732.24.wav'
p273
aS'c15_16_14936.89_14937.82.wav'
p274
aS'15_16_44020.53_44021.3.wav'
p275
aS'c15_16_33706.54_33707.96.wav'
p276
aS'c15_16_24690.41_24691.42.wav'
p277
aS'15_16_44057.42_44058.03.wav'
p278
aS'23_15_12737.02_12738.35.wav'
p279
aS'23_15_49035.72_49038.33.wav'
p280
aS'c15_16_5629.99_5630.61.wav'
p281
aS'23_15_40428.41_40429.22.wav'
p282
aS'04_08_47438.27_47439.7.wav'
p283
aS'04_08_25225.67_25226.79.wav'
p284
aS'04_08_46327.54_46330.24.wav'
p285
aS'c22_15_48831680.0_48833300.0.wav'
p286
aS'c22_15_50459720.0_50460320.0.wav'
p287
aS'15_16_33761.5_33762.1.wav'
p288
aS'23_15_129.67_131.1.wav'
p289
aS'23_15_20858.81_20861.05.wav'
p290
aS'15_16_5635.74_5636.38.wav'
p291
aS'c22_15_4263710.0_4264310.0.wav'
p292
aS'23_15_56395.41_56403.65.wav'
p293
aS'c15_16_32208.03_32210.08.wav'
p294
aS'23_15_38878.59_38879.52.wav'
p295
aS'15_16_4237.68_4239.41.wav'
p296
aS'c22_15_47117550.0_47118150.0.wav'
p297
aS'c22_15_51487460.0_51488060.0.wav'
p298
aS'C25_08_21019.26_21020.1.wav'
p299
aS'23_15_29566.58_29567.25.wav'
p300
aS'c15_16_31122.62_31123.51.wav'
p301
aS'C25_08_22539.78_22540.38.wav'
p302
aS'23_15_29958.4_29959.82.wav'
p303
aS'C25_08_49479.49_49480.54.wav'
p304
aS'15_16_15808.19_15808.79.wav'
p305
aS'C25_08_29422.21_29423.59.wav'
p306
aS'15_16_43787.27_43788.07.wav'
p307
aS'04_08_33774.45_33775.39.wav'
p308
aS'23_15_30144.24_30146.96.wav'
p309
aS'04_08_26114.77_26115.37.wav'
p310
aS'C25_08_5409.91_5410.92.wav'
p311
aS'c22_15_56986540.0_56987780.0.wav'
p312
aS'C25_08_23533.97_23534.57.wav'
p313
aS'c22_15_45219350.0_45220100.0.wav'
p314
aS'04_08_7918.54_7919.46.wav'
p315
aS'04_08_28288.13_28289.59.wav'
p316
aS'c22_15_56922760.0_56924060.0.wav'
p317
aS'c22_15_2424780.0_2425690.0.wav'
p318
aS'04_08_45824.87_45825.96.wav'
p319
aS'04_08_25568.04_25568.64.wav'
p320
aS'15_16_43191.21_43191.86.wav'
p321
aS'15_16_45939.6_45940.24.wav'
p322
aS'15_16_217.95_219.26.wav'
p323
aS'23_15_49003.16_49003.99.wav'
p324
aS'c15_16_26394.36_26395.42.wav'
p325
aS'04_08_34912.64_34913.26.wav'
p326
aS'23_15_34967.47_34968.27.wav'
p327
aS'c22_15_5331260.0_5331910.0.wav'
p328
aS'15_16_8641.34_8642.91.wav'
p329
aS'04_08_1600.99_1602.07.wav'
p330
aS'23_15_33833.01_33833.79.wav'
p331
aS'23_15_39344.84_39348.24.wav'
p332
aS'c22_15_57019800.0_57020420.0.wav'
p333
aS'c15_16_3823.79_3824.4.wav'
p334
aS'23_15_12987.53_12988.89.wav'
p335
aS'C25_08_18541.25_18542.11.wav'
p336
aS'04_08_43479.17_43479.77.wav'
p337
aS'c22_15_50183720.0_50184320.0.wav'
p338
aS'C25_08_20049.46_20051.1.wav'
p339
aS'C25_08_27302.23_27305.42.wav'
p340
aS'15_16_44994.55_44995.32.wav'
p341
aS'04_08_34538.24_34539.95.wav'
p342
aS'23_15_48451.28_48451.92.wav'
p343
aS'23_15_19957.74_19959.05.wav'
p344
aS'c15_16_11816.52_11817.4.wav'
p345
aS'23_15_8104.84_8105.64.wav'
p346
aS'04_08_45380.83_45381.5.wav'
p347
aS'c22_15_1321820.0_1323700.0.wav'
p348
aS'15_16_44818.96_44820.0.wav'
p349
aS'04_08_34209.5_34210.9.wav'
p350
aS'23_15_46720.3_46720.99.wav'
p351
aS'c15_16_11840.11_11840.71.wav'
p352
aS'C25_08_584.57_585.29.wav'
p353
aS'23_15_5449.19_5449.85.wav'
p354
aS'c15_16_26792.33_26793.21.wav'
p355
aS'15_16_44319.0_44319.74.wav'
p356
aS'23_15_17919.98_17921.9.wav'
p357
aS'15_16_42649.03_42649.63.wav'
p358
aS'04_08_44998.53_44999.41.wav'
p359
aS'23_15_18279.47_18281.16.wav'
p360
aS'C25_08_7097.45_7098.15.wav'
p361
aS'c15_16_26317.51_26320.61.wav'
p362
aS'23_15_4018.78_4019.38.wav'
p363
aS'04_08_34065.95_34067.35.wav'
p364
aS'23_15_48922.03_48922.63.wav'
p365
aS'15_16_11952.66_11953.89.wav'
p366
aS'c15_16_44386.53_44387.2.wav'
p367
aS'C25_08_23792.18_23793.22.wav'
p368
aS'C25_08_56896.82_56897.8.wav'
p369
aS'c22_15_32899210.0_32899910.0.wav'
p370
aS'04_08_8467.96_8468.56.wav'
p371
aS'15_16_35386.25_35387.19.wav'
p372
aS'c22_15_56458940.0_56459640.0.wav'
p373
aS'04_08_9417.59_9418.19.wav'
p374
aS'c15_16_23266.07_23266.82.wav'
p375
aS'c15_16_19511.04_19512.05.wav'
p376
aS'c15_16_850.75_852.19.wav'
p377
aS'15_16_39680.37_39680.97.wav'
p378
aS'C25_08_25196.57_25197.77.wav'
p379
aS'04_08_438.78_439.38.wav'
p380
aS'c22_15_50027460.0_50028250.0.wav'
p381
aS'c22_15_3453610.0_3455960.0.wav'
p382
aS'23_15_56446.52_56449.9.wav'
p383
aS'23_15_14111.86_14112.63.wav'
p384
aS'c15_16_34813.45_34814.26.wav'
p385
aS'23_15_46975.64_46976.88.wav'
p386
aS'23_15_35911.32_35912.79.wav'
p387
aS'04_08_29605.32_29605.92.wav'
p388
aS'15_16_42609.92_42610.57.wav'
p389
aS'15_16_37618.82_37619.56.wav'
p390
aS'c22_15_44703120.0_44704120.0.wav'
p391
aS'c15_16_31466.25_31467.33.wav'
p392
aS'C25_08_28886.52_28887.45.wav'
p393
aS'04_08_31629.5_31630.1.wav'
p394
aS'c22_15_50021840.0_50024180.0.wav'
p395
aS'c15_16_34438.18_34438.78.wav'
p396
aS'c22_15_57038400.0_57039460.0.wav'
p397
aS'15_16_166.31_166.95.wav'
p398
aS'c15_16_25799.39_25800.37.wav'
p399
aS'C25_08_22566.18_22566.78.wav'
p400
aS'23_15_28439.98_28442.26.wav'
p401
aS'c22_15_50589710.0_50590870.0.wav'
p402
aS'c22_15_50756540.0_50757190.0.wav'
p403
aS'c15_16_22194.39_22194.99.wav'
p404
aS'c15_16_1812.95_1813.75.wav'
p405
aS'c22_15_48883010.0_48884970.0.wav'
p406
aS'15_16_8888.42_8889.6.wav'
p407
aS'04_08_28302.19_28306.57.wav'
p408
aS'c15_16_5954.29_5955.82.wav'
p409
aS'15_16_32792.08_32793.14.wav'
p410
aS'04_08_19260.56_19261.16.wav'
p411
aS'04_08_44080.75_44084.8.wav'
p412
aS'C25_08_49474.75_49475.78.wav'
p413
aS'c15_16_20396.01_20397.02.wav'
p414
aS'04_08_41100.13_41101.19.wav'
p415
aS'C25_08_3533.52_3534.89.wav'
p416
aS'C25_08_24405.84_24407.91.wav'
p417
aS'c22_15_8242640.0_8243440.0.wav'
p418
aS'04_08_13909.21_13910.89.wav'
p419
aS'04_08_28337.32_28338.97.wav'
p420
aS'c15_16_5708.95_5709.66.wav'
p421
aS'15_16_2108.11_2108.86.wav'
p422
aS'C25_08_15301.92_15302.53.wav'
p423
aS'C25_08_9854.11_9856.45.wav'
p424
aS'23_15_45609.01_45609.62.wav'
p425
aS'C25_08_4502.37_4503.06.wav'
p426
aS'15_16_46960.45_46962.34.wav'
p427
aS'C25_08_39321.5_39322.1.wav'
p428
aS'23_15_31702.68_31703.36.wav'
p429
aS'04_08_41805.21_41809.01.wav'
p430
aS'23_15_46564.91_46565.54.wav'
p431
aS'C25_08_39816.81_39817.41.wav'
p432
aS'15_16_38272.78_38273.42.wav'
p433
aS'04_08_47840.49_47841.52.wav'
p434
aS'c22_15_54224860.0_54226630.0.wav'
p435
aS'c15_16_26045.92_26048.85.wav'
p436
aS'15_16_3743.3_3745.25.wav'
p437
aS'15_16_10125.92_10126.59.wav'
p438
aS'04_08_26322.63_26323.26.wav'
p439
aS'c22_15_55085660.0_55086410.0.wav'
p440
aS'23_15_543.0_545.42.wav'
p441
aS'c15_16_34839.51_34840.4.wav'
p442
aS'23_15_39284.94_39285.56.wav'
p443
aS'04_08_47445.14_47445.96.wav'
p444
aS'23_15_33615.69_33621.21.wav'
p445
aS'15_16_6806.82_6807.42.wav'
p446
aS'c22_15_48814930.0_48815930.0.wav'
p447
aS'04_08_28923.78_28925.07.wav'
p448
aS'C25_08_9432.95_9433.57.wav'
p449
aS'C25_08_21360.46_21362.78.wav'
p450
aS'15_16_2174.33_2174.93.wav'
p451
aS'c22_15_51115630.0_51116550.0.wav'
p452
aS'15_16_41368.27_41369.27.wav'
p453
aS'04_08_34667.8_34671.06.wav'
p454
aS'04_08_29898.51_29899.47.wav'
p455
aS'15_16_10187.87_10188.66.wav'
p456
aS'c15_16_34180.4_34181.2.wav'
p457
aS'23_15_7485.48_7486.17.wav'
p458
aS'04_08_19514.62_19515.95.wav'
p459
aS'C25_08_11344.15_11345.02.wav'
p460
aS'c22_15_48733590.0_48734230.0.wav'
p461
aS'23_15_56443.69_56444.51.wav'
p462
aS'C25_08_27118.37_27118.99.wav'
p463
aS'23_15_10743.99_10745.65.wav'
p464
aS'c22_15_51243260.0_51244470.0.wav'
p465
aS'c15_16_21234.15_21234.75.wav'
p466
aS'15_16_37245.84_37246.62.wav'
p467
aS'23_15_48940.94_48942.46.wav'
p468
aS'04_08_13872.59_13873.73.wav'
p469
aS'04_08_28856.61_28857.42.wav'
p470
aS'c15_16_20170.9_20171.71.wav'
p471
aS'04_08_45598.24_45599.08.wav'
p472
aS'C25_08_25437.49_25438.09.wav'
p473
aS'15_16_39649.24_39650.42.wav'
p474
aS'23_15_28434.49_28435.36.wav'
p475
aS'15_16_31337.32_31338.26.wav'
p476
aS'23_15_8175.62_8177.48.wav'
p477
aS'c15_16_5609.32_5610.24.wav'
p478
aS'23_15_1262.66_1263.4.wav'
p479
aS'23_15_27305.25_27306.09.wav'
p480
aS'15_16_42499.66_42500.52.wav'
p481
aS'c15_16_10428.02_10428.68.wav'
p482
aS'C25_08_9310.77_9311.7.wav'
p483
aS'04_08_35282.53_35283.15.wav'
p484
aS'15_16_1022.02_1023.06.wav'
p485
aS'c22_15_45109130.0_45109730.0.wav'
p486
aS'c22_15_46881470.0_46883170.0.wav'
p487
aS'c15_16_14379.13_14380.07.wav'
p488
aS'c22_15_51125670.0_51126510.0.wav'
p489
aS'C25_08_26871.15_26871.89.wav'
p490
aS'04_08_45022.92_45023.58.wav'
p491
aS'c15_16_6492.5_6493.13.wav'
p492
aS'c22_15_52319380.0_52320010.0.wav'
p493
aS'C25_08_7126.25_7127.18.wav'
p494
aS'23_15_29759.77_29760.77.wav'
p495
aS'C25_08_29026.79_29027.39.wav'
p496
aS'23_15_2838.72_2839.32.wav'
p497
aS'04_08_25920.14_25921.01.wav'
p498
aS'23_15_27859.5_27860.22.wav'
p499
aS'c15_16_52738.8_52739.7.wav'
p500
aS'15_16_32732.79_32733.79.wav'
p501
aS'C25_08_29000.83_29001.84.wav'
p502
aS'C25_08_55998.56_56002.18.wav'
p503
aS'c22_15_46418580.0_46419190.0.wav'
p504
aS'C25_08_19289.89_19290.63.wav'
p505
aS'15_16_44222.79_44223.4.wav'
p506
aS'c22_15_48738920.0_48740170.0.wav'
p507
aS'C25_08_18661.94_18662.54.wav'
p508
aS'c22_15_57067400.0_57069340.0.wav'
p509
aS'c15_16_14867.35_14868.18.wav'
p510
aS'c15_16_5623.91_5624.87.wav'
p511
aS'23_15_23399.2_23399.81.wav'
p512
aS'04_08_44424.13_44424.73.wav'
p513
aS'15_16_37277.83_37278.65.wav'
p514
aS'C25_08_403.01_404.31.wav'
p515
aS'c22_15_50530220.0_50530820.0.wav'
p516
aS'c22_15_53081190.0_53082040.0.wav'
p517
aS'15_16_32147.27_32148.35.wav'
p518
aS'c15_16_12966.34_12967.9.wav'
p519
aS'23_15_22210.65_22211.25.wav'
p520
aS'04_08_32231.92_32233.56.wav'
p521
aS'c15_16_11883.99_11884.59.wav'
p522
aS'23_15_56228.11_56228.72.wav'
p523
aS'c22_15_46076340.0_46076940.0.wav'
p524
aS'04_08_33439.9_33440.9.wav'
p525
aS'23_15_48044.75_48045.35.wav'
p526
aS'c22_15_4546860.0_4547730.0.wav'
p527
aS'04_08_33846.5_33847.21.wav'
p528
aS'c22_15_48296040.0_48298460.0.wav'
p529
aS'c22_15_3626550.0_3627150.0.wav'
p530
aS'C25_08_49024.32_49025.19.wav'
p531
aS'c15_16_25805.97_25806.6.wav'
p532
aS'15_16_32758.97_32760.62.wav'
p533
aS'23_15_10762.59_10763.61.wav'
p534
aS'c22_15_46142350.0_46144140.0.wav'
p535
aS'c15_16_25720.68_25721.97.wav'
p536
aS'23_15_46568.86_46569.92.wav'
p537
aS'23_15_9103.2_9103.85.wav'
p538
aS'c22_15_7478810.0_7479910.0.wav'
p539
aS'23_15_12633.53_12635.36.wav'
p540
aS'c15_16_9570.9_9573.03.wav'
p541
aS'23_15_41127.16_41127.8.wav'
p542
aS'23_15_48268.68_48269.48.wav'
p543
aS'15_16_9464.06_9464.66.wav'
p544
aS'04_08_29846.51_29847.16.wav'
p545
aS'04_08_42832.51_42838.04.wav'
p546
aS'c22_15_48869370.0_48870040.0.wav'
p547
aS'04_08_2463.38_2464.44.wav'
p548
aS'c15_16_6498.09_6498.84.wav'
p549
aS'C25_08_22788.97_22789.66.wav'
p550
aS'23_15_12449.28_12449.88.wav'
p551
aS'04_08_13548.64_13549.39.wav'
p552
aS'23_15_25815.95_25816.84.wav'
p553
aS'15_16_31342.62_31343.62.wav'
p554
aS'c22_15_52652700.0_52653300.0.wav'
p555
aS'04_08_8780.98_8781.59.wav'
p556
aS'04_08_40363.27_40363.89.wav'
p557
aS'c15_16_30670.86_30671.46.wav'
p558
aS'c15_16_31144.06_31145.05.wav'
p559
aS'23_15_1222.23_1223.17.wav'
p560
aS'c22_15_49342090.0_49342710.0.wav'
p561
aS'c22_15_48959260.0_48960640.0.wav'
p562
aS'23_15_8693.21_8694.53.wav'
p563
aS'C25_08_21121.83_21122.47.wav'
p564
aS'15_16_9971.93_9972.53.wav'
p565
aS'15_16_7585.51_7586.44.wav'
p566
aS'04_08_35408.44_35409.17.wav'
p567
aS'23_15_25431.4_25432.0.wav'
p568
aS'04_08_3415.81_3419.87.wav'
p569
aS'C25_08_18081.28_18081.92.wav'
p570
aS'23_15_30887.7_30888.46.wav'
p571
aS'04_08_34224.27_34227.51.wav'
p572
aS'23_15_47629.76_47630.52.wav'
p573
aS'04_08_13684.67_13685.27.wav'
p574
aS'23_15_18580.28_18581.09.wav'
p575
aS'C25_08_16222.07_16223.09.wav'
p576
aS'15_16_3768.47_3771.19.wav'
p577
aS'c15_16_5385.29_5385.89.wav'
p578
aS'23_15_39361.4_39362.02.wav'
p579
aS'c22_15_49010550.0_49011160.0.wav'
p580
aS'04_08_42532.52_42533.29.wav'
p581
aS'c22_15_53639120.0_53639780.0.wav'
p582
aS'23_15_46225.31_46225.91.wav'
p583
aS'04_08_25371.5_25372.49.wav'
p584
aS'23_15_39298.97_39301.58.wav'
p585
aS'15_16_5318.58_5319.32.wav'
p586
aS'c15_16_31190.74_31191.39.wav'
p587
aS'15_16_125.33_126.06.wav'
p588
aS'15_16_36734.49_36735.87.wav'
p589
aS'23_15_40615.94_40617.48.wav'
p590
aS'04_08_17147.67_17148.83.wav'
p591
aS'c22_15_57064780.0_57066290.0.wav'
p592
aS'c15_16_22177.33_22178.1.wav'
p593
aS'c15_16_14848.11_14848.72.wav'
p594
aS'C25_08_28864.09_28864.97.wav'
p595
aS'c15_16_14243.84_14244.73.wav'
p596
aS'C25_08_987.34_988.01.wav'
p597
aS'15_16_34649.43_34650.11.wav'
p598
aS'c22_15_51266290.0_51266910.0.wav'
p599
aS'C25_08_4337.27_4337.87.wav'
p600
aS'23_15_56357.38_56358.78.wav'
p601
aS'c15_16_22033.89_22034.49.wav'
p602
aS'23_15_48564.57_48565.62.wav'
p603
aS'15_16_8879.12_8880.71.wav'
p604
aS'C25_08_44833.33_44834.19.wav'
p605
aS'c22_15_51514930.0_51515530.0.wav'
p606
aS'C25_08_43708.72_43709.51.wav'
p607
aS'c22_15_53627200.0_53628210.0.wav'
p608
aS'04_08_47431.32_47431.93.wav'
p609
aS'C25_08_1139.45_1143.05.wav'
p610
aS'c15_16_19576.42_19577.42.wav'
p611
aS'c15_16_26153.09_26154.47.wav'
p612
aS'23_15_39437.35_39440.04.wav'
p613
aS'23_15_43037.89_43038.49.wav'
p614
aS'c22_15_52434190.0_52434870.0.wav'
p615
aS'04_08_8052.74_8053.54.wav'
p616
aS'04_08_30342.57_30343.17.wav'
p617
aS'c22_15_1673600.0_1674210.0.wav'
p618
aS'04_08_46717.48_46718.3.wav'
p619
aS'15_16_14038.19_14040.22.wav'
p620
aS'c15_16_1288.97_1289.57.wav'
p621
aS'15_16_3159.33_3159.93.wav'
p622
aS'04_08_18604.34_18604.94.wav'
p623
aS'15_16_42611.4_42612.0.wav'
p624
aS'04_08_39608.89_39610.19.wav'
p625
aS'04_08_19489.03_19489.67.wav'
p626
aS'c15_16_33524.57_33527.5.wav'
p627
aS'23_15_23759.91_23761.5.wav'
p628
aS'23_15_23946.19_23949.59.wav'
p629
aS'c15_16_13712.39_13713.14.wav'
p630
aS'c22_15_53268580.0_53270820.0.wav'
p631
aS'c15_16_7186.27_7186.87.wav'
p632
aS'15_16_11773.85_11775.02.wav'
p633
aS'23_15_45140.44_45141.04.wav'
p634
aS'C25_08_1205.33_1205.93.wav'
p635
aS'23_15_34142.07_34142.85.wav'
p636
aS'23_15_38996.42_38997.42.wav'
p637
aS'04_08_30919.95_30921.13.wav'
p638
aS'04_08_45312.25_45313.2.wav'
p639
aS'c22_15_50788440.0_50792140.0.wav'
p640
aS'23_15_12585.49_12586.14.wav'
p641
aS'15_16_41339.03_41340.95.wav'
p642
aS'C25_08_24325.02_24325.63.wav'
p643
aS'C25_08_55879.43_55880.03.wav'
p644
aS'c15_16_520.9_521.5.wav'
p645
aS'c22_15_48283470.0_48284090.0.wav'
p646
aS'15_16_8849.66_8850.72.wav'
p647
aS'04_08_18531.13_18531.73.wav'
p648
aS'c22_15_45827860.0_45828800.0.wav'
p649
aS'c15_16_30451.87_30452.47.wav'
p650
aS'23_15_44645.87_44646.76.wav'
p651
aS'23_15_24119.61_24120.78.wav'
p652
aS'c22_15_57040350.0_57042370.0.wav'
p653
aS'C25_08_8441.25_8442.64.wav'
p654
aS'04_08_43668.42_43669.02.wav'
p655
aS'c22_15_57034720.0_57037600.0.wav'
p656
aS'04_08_46288.32_46289.52.wav'
p657
aS'04_08_2434.86_2435.59.wav'
p658
aS'23_15_25993.93_25994.88.wav'
p659
aS'15_16_4074.86_4075.97.wav'
p660
aS'04_08_29603.83_29604.52.wav'
p661
aS'23_15_34999.01_35000.22.wav'
p662
aS'15_16_6655.71_6656.99.wav'
p663
aS'C25_08_27008.04_27009.52.wav'
p664
aS'C25_08_23994.74_23995.74.wav'
p665
aS'C25_08_39260.89_39261.49.wav'
p666
aS'c22_15_57045500.0_57047680.0.wav'
p667
aS'04_08_31879.25_31880.27.wav'
p668
aS'04_08_19533.02_19534.13.wav'
p669
aS'04_08_34069.17_34070.44.wav'
p670
aS'23_15_44475.37_44475.97.wav'
p671
aS'23_15_3244.93_3245.91.wav'
p672
aS'C25_08_9415.32_9416.75.wav'
p673
aS'15_16_41445.11_41447.39.wav'
p674
aS'c22_15_56969280.0_56971310.0.wav'
p675
aS'15_16_45107.43_45108.31.wav'
p676
aS'C25_08_26899.07_26900.24.wav'
p677
aS'04_08_46496.32_46497.24.wav'
p678
aS'c22_15_6162330.0_6162930.0.wav'
p679
aS'c22_15_53800550.0_53804060.0.wav'
p680
aS'c22_15_50443900.0_50444520.0.wav'
p681
aS'23_15_39332.99_39336.33.wav'
p682
aS'04_08_46498.37_46499.71.wav'
p683
aS'c22_15_57009550.0_57012280.0.wav'
p684
aS'23_15_33307.68_33308.68.wav'
p685
a.