(lp1
S'c15_16_19400.42_19401.02.wav'
p2
aS'23_15_3171.29_3173.04.wav'
p3
aS'c22_15_45633220.0_45633830.0.wav'
p4
aS'C25_08_56896.82_56897.8.wav'
p5
aS'23_15_38620.85_38621.45.wav'
p6
aS'04_08_8467.96_8468.56.wav'
p7
aS'C25_08_31205.58_31206.18.wav'
p8
aS'15_16_2118.04_2118.65.wav'
p9
aS'c15_16_26153.09_26154.47.wav'
p10
aS'15_16_44026.23_44026.83.wav'
p11
aS'15_16_9645.24_9646.24.wav'
p12
aS'c22_15_501080.0_501680.0.wav'
p13
aS'c22_15_46979490.0_46980090.0.wav'
p14
aS'23_15_1099.21_1100.05.wav'
p15
aS'23_15_15247.06_15251.32.wav'
p16
aS'04_08_1687.3_1688.03.wav'
p17
aS'15_16_9850.85_9851.85.wav'
p18
aS'04_08_9417.59_9418.19.wav'
p19
aS'c22_15_57343970.0_57345400.0.wav'
p20
aS'C25_08_566.55_567.2.wav'
p21
aS'c15_16_11897.3_11898.98.wav'
p22
aS'04_08_29267.76_29270.4.wav'
p23
aS'23_15_47534.84_47535.67.wav'
p24
aS'15_16_46898.8_46899.63.wav'
p25
aS'04_08_25067.19_25067.99.wav'
p26
aS'c22_15_53227420.0_53228970.0.wav'
p27
aS'c22_15_51465410.0_51466210.0.wav'
p28
aS'C25_08_44799.39_44802.37.wav'
p29
aS'15_16_29970.83_29971.55.wav'
p30
aS'C25_08_29804.07_29806.84.wav'
p31
aS'c22_15_51623020.0_51623900.0.wav'
p32
aS'23_15_39442.96_39444.08.wav'
p33
aS'c22_15_53000150.0_53000750.0.wav'
p34
aS'C25_08_15808.18_15808.78.wav'
p35
aS'23_15_43037.89_43038.49.wav'
p36
aS'c22_15_165140.0_165790.0.wav'
p37
aS'C25_08_9868.2_9868.8.wav'
p38
aS'c15_16_12414.72_12415.74.wav'
p39
aS'04_08_39558.41_39560.88.wav'
p40
aS'c15_16_850.75_852.19.wav'
p41
aS'23_15_45527.35_45528.58.wav'
p42
aS'15_16_39680.37_39680.97.wav'
p43
aS'c15_16_30389.95_30390.83.wav'
p44
aS'04_08_48122.25_48123.07.wav'
p45
aS'23_15_97.87_99.6.wav'
p46
aS'C25_08_23645.27_23645.96.wav'
p47
aS'c22_15_50027460.0_50028250.0.wav'
p48
aS'c22_15_3453610.0_3455960.0.wav'
p49
aS'C25_08_21951.78_21952.38.wav'
p50
aS'c15_16_9166.36_9168.34.wav'
p51
aS'c22_15_49907130.0_49907730.0.wav'
p52
aS'04_08_25054.65_25055.5.wav'
p53
aS'23_15_56446.52_56449.9.wav'
p54
aS'15_16_1254.85_1256.05.wav'
p55
aS'15_16_46183.66_46184.46.wav'
p56
aS'15_16_18587.88_18589.6.wav'
p57
aS'04_08_19503.74_19505.56.wav'
p58
aS'04_08_46531.68_46532.28.wav'
p59
aS'c15_16_25836.61_25837.21.wav'
p60
aS'c15_16_31601.92_31602.76.wav'
p61
aS'15_16_32259.14_32259.76.wav'
p62
aS'c15_16_34813.45_34814.26.wav'
p63
aS'15_16_46996.01_46996.66.wav'
p64
aS'15_16_6638.65_6639.65.wav'
p65
aS'23_15_39435.36_39435.96.wav'
p66
aS'23_15_3763.15_3763.75.wav'
p67
aS'23_15_46975.64_46976.88.wav'
p68
aS'23_15_35493.37_35494.17.wav'
p69
aS'c22_15_1243800.0_1244400.0.wav'
p70
aS'23_15_38112.04_38113.29.wav'
p71
aS'04_08_2711.32_2712.71.wav'
p72
aS'c15_16_31631.21_31632.79.wav'
p73
aS'C25_08_44681.04_44684.58.wav'
p74
aS'15_16_4421.52_4422.17.wav'
p75
aS'23_15_26303.74_26304.34.wav'
p76
aS'04_08_44214.3_44214.9.wav'
p77
aS'C25_08_25123.76_25124.36.wav'
p78
aS'23_15_45895.54_45896.37.wav'
p79
aS'c22_15_51752190.0_51752820.0.wav'
p80
aS'15_16_11866.89_11867.69.wav'
p81
aS'c15_16_18077.33_18080.35.wav'
p82
aS'23_15_8388.14_8388.87.wav'
p83
aS'15_16_44108.13_44108.73.wav'
p84
aS'04_08_3149.9_3152.32.wav'
p85
aS'C25_08_17283.85_17285.37.wav'
p86
aS'15_16_36834.19_36835.43.wav'
p87
aS'04_08_29605.32_29605.92.wav'
p88
aS'15_16_106.77_107.38.wav'
p89
aS'C25_08_24201.67_24202.27.wav'
p90
aS'c15_16_2909.68_2910.35.wav'
p91
aS'04_08_15744.39_15746.84.wav'
p92
aS'15_16_2900.59_2901.19.wav'
p93
aS'c15_16_35313.02_35313.96.wav'
p94
aS'23_15_2934.7_2935.54.wav'
p95
aS'15_16_40657.16_40657.91.wav'
p96
aS'15_16_10127.65_10128.27.wav'
p97
aS'c22_15_44703120.0_44704120.0.wav'
p98
aS'c15_16_31466.25_31467.33.wav'
p99
aS'04_08_3232.67_3233.97.wav'
p100
aS'04_08_42056.07_42056.67.wav'
p101
aS'15_16_4967.16_4967.76.wav'
p102
aS'c22_15_47874390.0_47874990.0.wav'
p103
aS'c15_16_30374.36_30375.08.wav'
p104
aS'15_16_1971.41_1972.01.wav'
p105
aS'C25_08_24568.4_24569.15.wav'
p106
aS'c22_15_48840850.0_48841940.0.wav'
p107
aS'23_15_17666.22_17667.02.wav'
p108
aS'c22_15_178910.0_179510.0.wav'
p109
aS'23_15_26189.87_26190.5.wav'
p110
aS'c22_15_50965080.0_50965680.0.wav'
p111
aS'04_08_34708.99_34709.92.wav'
p112
aS'04_08_31629.5_31630.1.wav'
p113
aS'C25_08_15199.35_15201.15.wav'
p114
aS'04_08_28912.03_28912.63.wav'
p115
aS'23_15_16981.07_16981.96.wav'
p116
aS'c22_15_48743800.0_48744800.0.wav'
p117
aS'c22_15_1673600.0_1674210.0.wav'
p118
aS'15_16_166.31_166.95.wav'
p119
aS'04_08_8301.63_8303.81.wav'
p120
aS'c15_16_25799.39_25800.37.wav'
p121
aS'c22_15_50771090.0_50771690.0.wav'
p122
aS'c15_16_20595.86_20596.68.wav'
p123
aS'15_16_3931.25_3931.88.wav'
p124
aS'C25_08_22566.18_22566.78.wav'
p125
aS'04_08_44028.83_44029.58.wav'
p126
aS'04_08_14922.95_14924.15.wav'
p127
aS'04_08_33781.95_33784.47.wav'
p128
aS'04_08_26139.71_26140.46.wav'
p129
aS'c22_15_56506930.0_56507530.0.wav'
p130
aS'15_16_14038.19_14040.22.wav'
p131
aS'23_15_18579.28_18580.28.wav'
p132
aS'c22_15_53915130.0_53916230.0.wav'
p133
aS'c22_15_50589710.0_50590870.0.wav'
p134
aS'04_08_2341.85_2342.57.wav'
p135
aS'15_16_41412.71_41413.79.wav'
p136
aS'c15_16_22194.39_22194.99.wav'
p137
aS'04_08_17126.79_17127.4.wav'
p138
aS'23_15_14823.86_14826.33.wav'
p139
aS'C25_08_27075.4_27076.39.wav'
p140
aS'c22_15_45235960.0_45236970.0.wav'
p141
aS'15_16_15180.9_15181.5.wav'
p142
aS'C25_08_3099.8_3100.4.wav'
p143
aS'04_08_8770.58_8771.18.wav'
p144
aS'23_15_13383.51_13384.22.wav'
p145
aS'15_16_6695.98_6696.64.wav'
p146
aS'C25_08_7233.53_7235.35.wav'
p147
aS'c22_15_50517370.0_50518530.0.wav'
p148
aS'C25_08_49462.17_49463.74.wav'
p149
aS'04_08_29008.08_29009.98.wav'
p150
aS'23_15_44764.18_44764.97.wav'
p151
aS'C25_08_24848.09_24848.69.wav'
p152
aS'23_15_36912.04_36912.64.wav'
p153
aS'c22_15_52963940.0_52964570.0.wav'
p154
aS'C25_08_32777.34_32778.53.wav'
p155
aS'c15_16_5878.46_5880.62.wav'
p156
aS'23_15_56246.98_56247.86.wav'
p157
aS'c22_15_53523440.0_53524740.0.wav'
p158
aS'c22_15_48883010.0_48884970.0.wav'
p159
aS'c22_15_50637540.0_50638560.0.wav'
p160
aS'c15_16_20633.6_20634.28.wav'
p161
aS'15_16_42060.03_42061.79.wav'
p162
aS'04_08_18122.39_18123.23.wav'
p163
aS'C25_08_56097.47_56098.73.wav'
p164
aS'C25_08_674.24_675.24.wav'
p165
aS'c15_16_9094.22_9094.82.wav'
p166
aS'c22_15_57086560.0_57088900.0.wav'
p167
aS'C25_08_24742.31_24743.11.wav'
p168
aS'04_08_44119.11_44119.77.wav'
p169
aS'04_08_19260.56_19261.16.wav'
p170
aS'c22_15_53308350.0_53312230.0.wav'
p171
aS'C25_08_9510.13_9510.74.wav'
p172
aS'04_08_25449.39_25451.19.wav'
p173
aS'23_15_10105.99_10106.59.wav'
p174
aS'c15_16_24783.44_24784.25.wav'
p175
aS'C25_08_49474.75_49475.78.wav'
p176
aS'c22_15_51294760.0_51295360.0.wav'
p177
aS'C25_08_23612.35_23613.71.wav'
p178
aS'c15_16_1288.97_1289.57.wav'
p179
aS'04_08_18313.98_18315.23.wav'
p180
aS'23_15_18047.79_18049.37.wav'
p181
aS'c15_16_20396.01_20397.02.wav'
p182
aS'15_16_8869.64_8870.64.wav'
p183
aS'c15_16_21782.53_21783.99.wav'
p184
aS'c15_16_14263.32_14263.92.wav'
p185
aS'23_15_24088.05_24089.06.wav'
p186
aS'c15_16_9063.55_9064.28.wav'
p187
aS'23_15_33941.16_33942.35.wav'
p188
aS'15_16_3159.33_3159.93.wav'
p189
aS'c22_15_665480.0_666080.0.wav'
p190
aS'04_08_11839.45_11840.05.wav'
p191
aS'c22_15_51874580.0_51875180.0.wav'
p192
aS'C25_08_3533.52_3534.89.wav'
p193
aS'15_16_34532.61_34533.5.wav'
p194
aS'C25_08_22907.52_22908.12.wav'
p195
aS'04_08_35185.64_35186.24.wav'
p196
aS'23_15_14077.24_14079.24.wav'
p197
aS'c15_16_3284.14_3284.75.wav'
p198
aS'15_16_4752.49_4754.18.wav'
p199
aS'C25_08_20700.42_20701.44.wav'
p200
aS'c15_16_34058.32_34058.92.wav'
p201
aS'04_08_18604.34_18604.94.wav'
p202
aS'c22_15_49320240.0_49321230.0.wav'
p203
aS'15_16_37529.05_37529.65.wav'
p204
aS'c15_16_19875.45_19876.05.wav'
p205
aS'C25_08_21259.19_21259.79.wav'
p206
aS'15_16_43927.86_43928.79.wav'
p207
aS'23_15_56408.08_56408.77.wav'
p208
aS'C25_08_23723.55_23724.39.wav'
p209
aS'04_08_27117.87_27118.63.wav'
p210
aS'C25_08_16598.68_16600.83.wav'
p211
aS'C25_08_24405.84_24407.91.wav'
p212
aS'23_15_18568.66_18569.77.wav'
p213
aS'c22_15_8242640.0_8243440.0.wav'
p214
aS'23_15_26158.68_26159.7.wav'
p215
aS'15_16_42611.4_42612.0.wav'
p216
aS'04_08_12334.62_12336.98.wav'
p217
aS'c22_15_51264120.0_51264860.0.wav'
p218
aS'04_08_35834.43_35835.03.wav'
p219
aS'04_08_48047.37_48047.97.wav'
p220
aS'c15_16_3773.47_3776.25.wav'
p221
aS'23_15_10523.73_10524.33.wav'
p222
aS'c15_16_19585.97_19586.57.wav'
p223
aS'c22_15_55337170.0_55337770.0.wav'
p224
aS'15_16_41415.7_41416.51.wav'
p225
aS'23_15_40849.42_40850.04.wav'
p226
aS'c15_16_5708.95_5709.66.wav'
p227
aS'04_08_19339.88_19340.49.wav'
p228
aS'23_15_16125.1_16127.27.wav'
p229
aS'15_16_1123.68_1124.37.wav'
p230
aS'c22_15_51105880.0_51106480.0.wav'
p231
aS'c15_16_24786.8_24787.4.wav'
p232
aS'c15_16_22236.48_22237.2.wav'
p233
aS'c22_15_47391910.0_47393020.0.wav'
p234
aS'15_16_42048.55_42050.94.wav'
p235
aS'04_08_46863.38_46864.38.wav'
p236
aS'23_15_10715.41_10717.41.wav'
p237
aS'c22_15_46373830.0_46376300.0.wav'
p238
aS'04_08_35744.77_35745.37.wav'
p239
aS'C25_08_9854.11_9856.45.wav'
p240
aS'c22_15_45229930.0_45231140.0.wav'
p241
aS'c15_16_21196.04_21196.67.wav'
p242
aS'04_08_29718.35_29719.2.wav'
p243
aS'15_16_45586.33_45586.99.wav'
p244
aS'c15_16_14852.87_14853.51.wav'
p245
aS'C25_08_24837.78_24841.21.wav'
p246
aS'15_16_11814.86_11815.53.wav'
p247
aS'c22_15_57532370.0_57534280.0.wav'
p248
aS'15_16_40320.0_40320.62.wav'
p249
aS'c22_15_51497920.0_51501030.0.wav'
p250
aS'c15_16_10620.43_10621.03.wav'
p251
aS'c15_16_19592.95_19593.72.wav'
p252
aS'c15_16_27578.2_27579.39.wav'
p253
aS'C25_08_45168.05_45169.03.wav'
p254
aS'c15_16_22181.21_22181.81.wav'
p255
aS'23_15_56189.93_56192.45.wav'
p256
aS'c22_15_54166660.0_54167260.0.wav'
p257
aS'c22_15_50619560.0_50620160.0.wav'
p258
aS'23_15_6432.82_6433.82.wav'
p259
aS'C25_08_4085.58_4086.73.wav'
p260
aS'15_16_10072.76_10073.36.wav'
p261
aS'c15_16_12015.1_12016.17.wav'
p262
aS'15_16_38183.04_38183.74.wav'
p263
aS'23_15_23759.91_23761.5.wav'
p264
aS'c15_16_19419.65_19420.36.wav'
p265
aS'23_15_1031.98_1032.73.wav'
p266
aS'c15_16_3602.02_3603.82.wav'
p267
aS'23_15_18039.8_18040.4.wav'
p268
aS'c15_16_33315.73_33316.33.wav'
p269
aS'C25_08_3503.8_3505.93.wav'
p270
aS'C25_08_55459.69_55460.29.wav'
p271
aS'23_15_18405.68_18406.38.wav'
p272
aS'C25_08_44902.89_44903.89.wav'
p273
aS'C25_08_24911.04_24911.64.wav'
p274
aS'c22_15_56454980.0_56457220.0.wav'
p275
aS'04_08_19479.27_19479.87.wav'
p276
aS'C25_08_30009.54_30010.14.wav'
p277
aS'04_08_41805.21_41809.01.wav'
p278
aS'15_16_46269.82_46273.96.wav'
p279
aS'04_08_43413.23_43415.06.wav'
p280
aS'c15_16_30900.4_30901.0.wav'
p281
aS'C25_08_25308.02_25308.76.wav'
p282
aS'23_15_103.49_106.78.wav'
p283
aS'15_16_9123.74_9124.39.wav'
p284
aS'C25_08_24809.85_24810.73.wav'
p285
aS'c15_16_31228.62_31229.74.wav'
p286
aS'23_15_13215.66_13217.1.wav'
p287
aS'c15_16_20774.83_20775.43.wav'
p288
aS'c15_16_11485.88_11486.68.wav'
p289
aS'C25_08_28350.68_28351.34.wav'
p290
aS'15_16_37948.19_37948.8.wav'
p291
aS'04_08_43422.37_43422.97.wav'
p292
aS'04_08_44308.67_44310.11.wav'
p293
aS'04_08_47840.49_47841.52.wav'
p294
aS'C25_08_23334.72_23335.71.wav'
p295
aS'c22_15_54224860.0_54226630.0.wav'
p296
aS'c15_16_26045.92_26048.85.wav'
p297
aS'23_15_16543.76_16545.87.wav'
p298
aS'04_08_46523.41_46524.35.wav'
p299
aS'15_16_40389.08_40390.03.wav'
p300
aS'15_16_10125.92_10126.59.wav'
p301
aS'c15_16_11177.52_11178.12.wav'
p302
aS'C25_08_7106.78_7107.38.wav'
p303
aS'15_16_31519.29_31519.89.wav'
p304
aS'c22_15_50859550.0_50860550.0.wav'
p305
aS'c22_15_53926310.0_53928640.0.wav'
p306
aS'c22_15_50617010.0_50617630.0.wav'
p307
aS'c22_15_606580.0_607180.0.wav'
p308
aS'04_08_24900.91_24901.71.wav'
p309
aS'c15_16_3598.88_3599.48.wav'
p310
aS'c22_15_51571660.0_51573460.0.wav'
p311
aS'c22_15_46071740.0_46072360.0.wav'
p312
aS'15_16_46232.58_46237.22.wav'
p313
aS'04_08_42565.09_42566.43.wav'
p314
aS'C25_08_22409.81_22410.96.wav'
p315
aS'23_15_543.0_545.42.wav'
p316
aS'23_15_1496.66_1497.26.wav'
p317
aS'04_08_25569.54_25570.14.wav'
p318
aS'C25_08_18731.36_18732.39.wav'
p319
aS'C25_08_21354.25_21354.91.wav'
p320
aS'C25_08_20874.23_20875.75.wav'
p321
aS'C25_08_49331.75_49332.35.wav'
p322
aS'15_16_2851.99_2852.97.wav'
p323
aS'23_15_12842.28_12843.91.wav'
p324
aS'15_16_32301.15_32301.75.wav'
p325
aS'c22_15_56328140.0_56328740.0.wav'
p326
aS'c22_15_53736030.0_53738060.0.wav'
p327
aS'04_08_47710.72_47711.66.wav'
p328
aS'23_15_20289.61_20293.95.wav'
p329
aS'04_08_33709.02_33709.67.wav'
p330
aS'04_08_47445.14_47445.96.wav'
p331
aS'15_16_33020.83_33022.11.wav'
p332
aS'c15_16_9258.66_9259.26.wav'
p333
aS'04_08_5227.44_5228.05.wav'
p334
aS'c15_16_23316.41_23317.01.wav'
p335
aS'23_15_26083.46_26086.4.wav'
p336
aS'C25_08_24706.7_24708.35.wav'
p337
aS'c22_15_52106370.0_52107100.0.wav'
p338
aS'15_16_40190.74_40191.4.wav'
p339
aS'04_08_17241.21_17241.97.wav'
p340
aS'c22_15_48767170.0_48767770.0.wav'
p341
aS'c22_15_50602890.0_50605920.0.wav'
p342
aS'23_15_2492.98_2493.72.wav'
p343
aS'15_16_10044.22_10045.23.wav'
p344
aS'c15_16_21261.21_21261.91.wav'
p345
aS'23_15_28236.09_28237.16.wav'
p346
aS'c22_15_53148800.0_53149480.0.wav'
p347
aS'C25_08_21119.22_21121.03.wav'
p348
aS'c22_15_43257300.0_43259200.0.wav'
p349
aS'C25_08_1205.33_1205.93.wav'
p350
aS'04_08_44660.8_44661.65.wav'
p351
aS'c15_16_26658.0_26659.04.wav'
p352
aS'23_15_33615.69_33621.21.wav'
p353
aS'c22_15_56380070.0_56380680.0.wav'
p354
aS'c15_16_34484.9_34487.5.wav'
p355
aS'C25_08_10148.79_10149.39.wav'
p356
aS'23_15_56327.16_56327.96.wav'
p357
aS'15_16_14170.13_14170.73.wav'
p358
aS'C25_08_21241.66_21242.31.wav'
p359
aS'c22_15_4083090.0_4083910.0.wav'
p360
aS'c22_15_53824550.0_53825440.0.wav'
p361
aS'15_16_39667.13_39667.73.wav'
p362
aS'04_08_28319.5_28323.63.wav'
p363
aS'c15_16_13129.57_13130.17.wav'
p364
aS'15_16_6806.82_6807.42.wav'
p365
aS'23_15_38996.42_38997.42.wav'
p366
aS'04_08_30919.95_30921.13.wav'
p367
aS'c22_15_51195750.0_51196970.0.wav'
p368
aS'C25_08_56095.24_56096.67.wav'
p369
aS'C25_08_30884.31_30885.33.wav'
p370
aS'C25_08_48665.74_48666.4.wav'
p371
aS'C25_08_6747.14_6751.34.wav'
p372
aS'04_08_28923.78_28925.07.wav'
p373
aS'c22_15_48806120.0_48806850.0.wav'
p374
aS'04_08_45312.25_45313.2.wav'
p375
aS'C25_08_3986.7_3987.3.wav'
p376
aS'23_15_2334.95_2336.51.wav'
p377
aS'c15_16_26271.94_26272.54.wav'
p378
aS'04_08_13922.03_13922.86.wav'
p379
aS'C25_08_21360.46_21362.78.wav'
p380
aS'C25_08_29410.44_29411.92.wav'
p381
aS'15_16_15972.96_15973.57.wav'
p382
aS'23_15_26573.3_26573.91.wav'
p383
aS'04_08_3666.02_3666.62.wav'
p384
aS'c22_15_57394080.0_57395340.0.wav'
p385
aS'04_08_30181.52_30184.82.wav'
p386
aS'15_16_2174.33_2174.93.wav'
p387
aS'c15_16_25037.19_25037.79.wav'
p388
aS'04_08_26004.09_26004.69.wav'
p389
aS'c15_16_21729.24_21729.92.wav'
p390
aS'04_08_29239.39_29240.02.wav'
p391
aS'c15_16_26114.45_26115.48.wav'
p392
aS'04_08_32177.16_32180.84.wav'
p393
aS'c22_15_166600.0_167380.0.wav'
p394
aS'c22_15_45671370.0_45671970.0.wav'
p395
aS'C25_08_21009.73_21010.63.wav'
p396
aS'C25_08_44886.9_44888.52.wav'
p397
aS'c22_15_57160830.0_57162180.0.wav'
p398
aS'c22_15_48084020.0_48084940.0.wav'
p399
aS'23_15_48030.53_48031.54.wav'
p400
aS'04_08_29848.14_29848.78.wav'
p401
aS'04_08_17933.46_17935.24.wav'
p402
aS'c22_15_56300760.0_56301370.0.wav'
p403
aS'04_08_29898.51_29899.47.wav'
p404
aS'23_15_31449.84_31450.83.wav'
p405
aS'15_16_4980.48_4981.08.wav'
p406
aS'23_15_12585.49_12586.14.wav'
p407
aS'C25_08_44423.65_44424.47.wav'
p408
aS'23_15_7485.48_7486.17.wav'
p409
aS'C25_08_21506.89_21507.49.wav'
p410
aS'c22_15_52323980.0_52324610.0.wav'
p411
aS'c15_16_20138.81_20140.6.wav'
p412
aS'04_08_32043.05_32043.65.wav'
p413
aS'04_08_26224.27_26228.25.wav'
p414
aS'c15_16_9448.61_9449.51.wav'
p415
aS'C25_08_18646.2_18647.48.wav'
p416
aS'c15_16_9518.3_9519.31.wav'
p417
aS'C25_08_29486.9_29487.6.wav'
p418
aS'23_15_14785.27_14790.46.wav'
p419
aS'23_15_46967.76_46968.44.wav'
p420
aS'23_15_7279.48_7280.14.wav'
p421
aS'04_08_16483.17_16483.79.wav'
p422
aS'04_08_18920.4_18921.0.wav'
p423
aS'04_08_19514.62_19515.95.wav'
p424
aS'23_15_21602.43_21603.43.wav'
p425
aS'04_08_18551.8_18553.27.wav'
p426
aS'C25_08_33051.8_33052.4.wav'
p427
aS'04_08_32002.6_32003.78.wav'
p428
aS'C25_08_24325.02_24325.63.wav'
p429
aS'23_15_14161.17_14162.95.wav'
p430
aS'04_08_47672.37_47673.72.wav'
p431
aS'23_15_4679.86_4681.33.wav'
p432
aS'c22_15_50704530.0_50705400.0.wav'
p433
aS'04_08_2342.57_2343.57.wav'
p434
aS'23_15_38968.97_38970.92.wav'
p435
aS'C25_08_11344.15_11345.02.wav'
p436
aS'c22_15_53054030.0_53054630.0.wav'
p437
aS'c22_15_53478030.0_53478870.0.wav'
p438
aS'15_16_17213.27_17213.95.wav'
p439
aS'04_08_33971.58_33973.49.wav'
p440
aS'04_08_34037.32_34038.0.wav'
p441
aS'15_16_2023.33_2023.93.wav'
p442
aS'c22_15_53384510.0_53385160.0.wav'
p443
aS'C25_08_22871.62_22872.22.wav'
p444
aS'23_15_1992.16_1993.19.wav'
p445
aS'15_16_12798.29_12799.55.wav'
p446
aS'15_16_33277.72_33278.86.wav'
p447
aS'c22_15_40750610.0_40751470.0.wav'
p448
aS'23_15_56443.69_56444.51.wav'
p449
aS'15_16_45562.16_45562.76.wav'
p450
aS'c22_15_51243260.0_51244470.0.wav'
p451
aS'c15_16_21234.15_21234.75.wav'
p452
aS'04_08_1578.66_1580.62.wav'
p453
aS'c22_15_47237740.0_47238630.0.wav'
p454
aS'15_16_8767.41_8768.19.wav'
p455
aS'C25_08_45227.2_45227.82.wav'
p456
aS'c15_16_2919.04_2919.97.wav'
p457
aS'c22_15_50004360.0_50005140.0.wav'
p458
aS'04_08_30543.4_30544.32.wav'
p459
aS'C25_08_22543.51_22544.15.wav'
p460
aS'c15_16_21149.29_21151.49.wav'
p461
aS'04_08_13872.59_13873.73.wav'
p462
aS'C25_08_55879.43_55880.03.wav'
p463
aS'c15_16_21169.23_21170.05.wav'
p464
aS'15_16_37068.09_37068.69.wav'
p465
aS'C25_08_13125.01_13125.84.wav'
p466
aS'15_16_4014.24_4014.84.wav'
p467
aS'c15_16_26702.45_26703.28.wav'
p468
aS'C25_08_9591.97_9593.94.wav'
p469
aS'23_15_46688.24_46688.84.wav'
p470
aS'c15_16_520.9_521.5.wav'
p471
aS'23_15_56198.95_56201.31.wav'
p472
aS'23_15_41589.92_41590.74.wav'
p473
aS'23_15_48360.87_48361.52.wav'
p474
aS'04_08_8463.98_8464.71.wav'
p475
aS'C25_08_33125.48_33126.48.wav'
p476
aS'c22_15_56289730.0_56292290.0.wav'
p477
aS'c15_16_10871.85_10872.45.wav'
p478
aS'04_08_19710.64_19711.24.wav'
p479
aS'C25_08_4512.23_4512.86.wav'
p480
aS'c22_15_51446770.0_51447400.0.wav'
p481
aS'15_16_42052.56_42053.16.wav'
p482
aS'04_08_25877.9_25879.02.wav'
p483
aS'15_16_42795.43_42796.11.wav'
p484
aS'C25_08_29978.92_29979.53.wav'
p485
aS'23_15_23135.42_23136.28.wav'
p486
aS'C25_08_14185.81_14186.81.wav'
p487
aS'C25_08_12062.49_12063.09.wav'
p488
aS'C25_08_6617.14_6619.12.wav'
p489
aS'c22_15_45849630.0_45850570.0.wav'
p490
aS'C25_08_21347.18_21349.05.wav'
p491
aS'15_16_2824.99_2825.59.wav'
p492
aS'15_16_41129.13_41129.73.wav'
p493
aS'c15_16_20170.9_20171.71.wav'
p494
aS'15_16_8904.41_8905.66.wav'
p495
aS'04_08_32495.83_32498.93.wav'
p496
aS'04_08_30896.61_30900.58.wav'
p497
aS'15_16_46710.66_46711.55.wav'
p498
aS'23_15_18438.82_18441.82.wav'
p499
aS'c22_15_726080.0_726710.0.wav'
p500
aS'C25_08_25437.49_25438.09.wav'
p501
aS'c22_15_48283470.0_48284090.0.wav'
p502
aS'15_16_17194.71_17195.37.wav'
p503
aS'C25_08_31000.48_31001.56.wav'
p504
aS'c15_16_44365.15_44365.75.wav'
p505
aS'04_08_16695.01_16695.77.wav'
p506
aS'15_16_84.5_85.1.wav'
p507
aS'15_16_3741.66_3742.29.wav'
p508
aS'23_15_786.07_787.26.wav'
p509
aS'04_08_8826.28_8827.13.wav'
p510
aS'15_16_30450.01_30450.61.wav'
p511
aS'c15_16_9645.36_9648.0.wav'
p512
aS'C25_08_1194.18_1194.93.wav'
p513
aS'23_15_25016.89_25018.48.wav'
p514
aS'23_15_30175.58_30178.49.wav'
p515
aS'15_16_46642.21_46642.81.wav'
p516
aS'C25_08_39358.04_39359.38.wav'
p517
aS'c15_16_14266.06_14267.06.wav'
p518
aS'c22_15_48259340.0_48261750.0.wav'
p519
aS'15_16_4932.12_4933.12.wav'
p520
aS'c22_15_46994130.0_46994730.0.wav'
p521
aS'23_15_8175.62_8177.48.wav'
p522
aS'15_16_19286.91_19287.51.wav'
p523
aS'c15_16_21001.28_21002.56.wav'
p524
aS'C25_08_39235.23_39236.77.wav'
p525
aS'15_16_36985.71_36986.39.wav'
p526
aS'C25_08_29323.84_29325.13.wav'
p527
aS'04_08_1033.21_1034.11.wav'
p528
aS'23_15_27882.04_27882.96.wav'
p529
aS'15_16_4334.72_4335.43.wav'
p530
aS'15_16_36974.44_36975.74.wav'
p531
aS'c22_15_55769390.0_55769990.0.wav'
p532
aS'C25_08_4153.73_4154.73.wav'
p533
aS'c22_15_50917130.0_50917730.0.wav'
p534
aS'23_15_35769.39_35770.78.wav'
p535
aS'C25_08_16611.58_16613.04.wav'
p536
aS'c15_16_26177.64_26178.24.wav'
p537
aS'15_16_114.27_115.05.wav'
p538
aS'C25_08_31446.65_31447.25.wav'
p539
aS'c15_16_35668.78_35669.78.wav'
p540
aS'04_08_2607.55_2608.16.wav'
p541
aS'c22_15_56879760.0_56880640.0.wav'
p542
aS'15_16_8489.75_8490.81.wav'
p543
aS'15_16_43076.35_43076.95.wav'
p544
aS'c22_15_49912120.0_49913190.0.wav'
p545
aS'23_15_29624.36_29625.16.wav'
p546
aS'23_15_29784.76_29785.39.wav'
p547
aS'C25_08_56017.04_56019.14.wav'
p548
aS'C25_08_44383.86_44385.26.wav'
p549
aS'c22_15_8274320.0_8275840.0.wav'
p550
aS'c15_16_6426.02_6426.63.wav'
p551
aS'04_08_35282.53_35283.15.wav'
p552
aS'15_16_34550.36_34551.1.wav'
p553
aS'c15_16_34231.57_34232.17.wav'
p554
aS'c22_15_45109130.0_45109730.0.wav'
p555
aS'C25_08_28871.95_28873.05.wav'
p556
aS'04_08_18531.13_18531.73.wav'
p557
aS'15_16_30006.76_30009.5.wav'
p558
aS'c15_16_18309.5_18311.33.wav'
p559
aS'C25_08_31624.48_31625.74.wav'
p560
aS'15_16_38417.67_38418.29.wav'
p561
aS'c22_15_45827860.0_45828800.0.wav'
p562
aS'C25_08_17291.29_17293.1.wav'
p563
aS'c22_15_382410.0_383760.0.wav'
p564
aS'15_16_42834.23_42834.86.wav'
p565
aS'c22_15_52560620.0_52561410.0.wav'
p566
aS'c22_15_51125670.0_51126510.0.wav'
p567
aS'C25_08_24712.56_24713.16.wav'
p568
aS'c22_15_49191180.0_49191780.0.wav'
p569
aS'23_15_38057.81_38058.41.wav'
p570
aS'04_08_33758.34_33760.64.wav'
p571
aS'c15_16_6018.93_6019.6.wav'
p572
aS'23_15_12765.94_12766.54.wav'
p573
aS'04_08_40966.72_40969.26.wav'
p574
aS'15_16_17393.65_17394.43.wav'
p575
aS'c15_16_9112.16_9112.84.wav'
p576
aS'23_15_24119.61_24120.78.wav'
p577
aS'c22_15_53962970.0_53965560.0.wav'
p578
aS'23_15_46790.64_46791.24.wav'
p579
aS'15_16_44153.16_44153.87.wav'
p580
aS'15_16_33119.87_33120.88.wav'
p581
aS'c15_16_10527.59_10528.34.wav'
p582
aS'15_16_37430.0_37430.61.wav'
p583
aS'c15_16_6492.5_6493.13.wav'
p584
aS'04_08_18684.65_18685.31.wav'
p585
aS'C25_08_39248.38_39249.31.wav'
p586
aS'23_15_20699.89_20701.97.wav'
p587
aS'23_15_56638.94_56639.63.wav'
p588
aS'23_15_41123.39_41124.39.wav'
p589
aS'C25_08_29026.79_29027.39.wav'
p590
aS'c15_16_17640.59_17641.39.wav'
p591
aS'15_16_47410.17_47411.05.wav'
p592
aS'04_08_16313.14_16313.75.wav'
p593
aS'C25_08_19130.55_19131.16.wav'
p594
aS'23_15_1405.14_1406.47.wav'
p595
aS'23_15_48371.48_48372.88.wav'
p596
aS'04_08_25920.14_25921.01.wav'
p597
aS'c22_15_37350.0_37950.0.wav'
p598
aS'15_16_39194.62_39195.68.wav'
p599
aS'c15_16_52738.8_52739.7.wav'
p600
aS'c22_15_52232810.0_52233730.0.wav'
p601
aS'c15_16_11669.31_11669.91.wav'
p602
aS'23_15_41152.77_41154.23.wav'
p603
aS'04_08_19546.89_19548.03.wav'
p604
aS'c22_15_50045750.0_50046460.0.wav'
p605
aS'C25_08_33084.04_33085.56.wav'
p606
aS'15_16_4804.86_4805.65.wav'
p607
aS'15_16_36662.85_36663.48.wav'
p608
aS'c15_16_33731.16_33733.63.wav'
p609
aS'04_08_47964.09_47965.15.wav'
p610
aS'c22_15_720190.0_721140.0.wav'
p611
aS'C25_08_55998.56_56002.18.wav'
p612
aS'c15_16_35837.81_35838.41.wav'
p613
aS'c15_16_9320.84_9323.2.wav'
p614
aS'23_15_18592.1_18593.0.wav'
p615
aS'15_16_2012.3_2012.93.wav'
p616
aS'c15_16_5602.58_5603.53.wav'
p617
aS'C25_08_22656.48_22657.1.wav'
p618
aS'c15_16_48355.0_48355.93.wav'
p619
aS'23_15_25094.57_25095.17.wav'
p620
aS'23_15_56158.68_56159.28.wav'
p621
aS'15_16_4698.98_4699.98.wav'
p622
aS'c15_16_4211.4_4212.0.wav'
p623
aS'23_15_2681.88_2682.89.wav'
p624
aS'04_08_34015.54_34016.61.wav'
p625
aS'15_16_41137.03_41138.88.wav'
p626
aS'c22_15_52750850.0_52751700.0.wav'
p627
aS'15_16_10210.64_10211.95.wav'
p628
aS'C25_08_28311.69_28312.39.wav'
p629
aS'c15_16_36813.95_36816.89.wav'
p630
aS'04_08_29540.88_29541.49.wav'
p631
aS'23_15_20192.6_20193.48.wav'
p632
aS'04_08_43665.65_43666.29.wav'
p633
aS'C25_08_2967.43_2968.06.wav'
p634
aS'C25_08_19466.38_19467.1.wav'
p635
aS'c22_15_3434000.0_3434600.0.wav'
p636
aS'23_15_27672.53_27673.41.wav'
p637
aS'c22_15_51345440.0_51346450.0.wav'
p638
aS'c15_16_44410.89_44411.89.wav'
p639
aS'04_08_16559.3_16559.9.wav'
p640
aS'15_16_19168.1_19168.91.wav'
p641
aS'c22_15_53760830.0_53762650.0.wav'
p642
aS'c22_15_57535890.0_57537500.0.wav'
p643
aS'04_08_47844.42_47845.02.wav'
p644
aS'04_08_48142.19_48142.92.wav'
p645
aS'C25_08_27544.09_27545.1.wav'
p646
aS'c15_16_1724.97_1726.39.wav'
p647
aS'04_08_28696.91_28697.61.wav'
p648
aS'c15_16_33856.04_33856.68.wav'
p649
aS'15_16_40660.21_40661.02.wav'
p650
aS'c15_16_27546.05_27546.66.wav'
p651
aS'c22_15_57067400.0_57069340.0.wav'
p652
aS'c22_15_52281700.0_52282300.0.wav'
p653
aS'15_16_43699.34_43700.34.wav'
p654
aS'15_16_17386.24_17392.85.wav'
p655
aS'23_15_1614.9_1615.7.wav'
p656
aS'04_08_30444.83_30445.43.wav'
p657
aS'c15_16_14867.35_14868.18.wav'
p658
aS'c22_15_49421660.0_49422860.0.wav'
p659
aS'04_08_41075.63_41076.76.wav'
p660
aS'04_08_44228.39_44230.39.wav'
p661
aS'c22_15_1368080.0_1368840.0.wav'
p662
aS'c22_15_57342390.0_57343120.0.wav'
p663
aS'04_08_47984.64_47985.63.wav'
p664
aS'23_15_12804.38_12806.72.wav'
p665
aS'c22_15_57034720.0_57037600.0.wav'
p666
aS'c15_16_19713.11_19714.12.wav'
p667
aS'c15_16_2418.27_2418.89.wav'
p668
aS'C25_08_48012.78_48013.4.wav'
p669
aS'C25_08_56456.77_56457.38.wav'
p670
aS'c15_16_21855.58_21856.34.wav'
p671
aS'15_16_44443.45_44444.25.wav'
p672
aS'C25_08_9435.49_9436.23.wav'
p673
aS'15_16_37974.77_37975.77.wav'
p674
aS'04_08_33656.32_33660.6.wav'
p675
aS'C25_08_26965.2_26965.86.wav'
p676
aS'c15_16_5623.91_5624.87.wav'
p677
aS'c15_16_15332.01_15332.61.wav'
p678
aS'15_16_4009.41_4010.16.wav'
p679
aS'C25_08_20220.18_20220.78.wav'
p680
aS'15_16_9073.91_9075.09.wav'
p681
aS'15_16_4409.65_4410.58.wav'
p682
aS'15_16_42489.82_42490.49.wav'
p683
aS'23_15_23399.2_23399.81.wav'
p684
aS'04_08_43533.77_43534.37.wav'
p685
aS'c15_16_26256.12_26257.01.wav'
p686
aS'c15_16_24731.62_24732.24.wav'
p687
aS'C25_08_21461.26_21462.76.wav'
p688
aS'23_15_16198.06_16198.79.wav'
p689
aS'04_08_33432.53_33434.55.wav'
p690
aS'c22_15_49003740.0_49004350.0.wav'
p691
aS'c15_16_27468.66_27469.64.wav'
p692
aS'C25_08_28493.23_28494.04.wav'
p693
aS'c22_15_49306610.0_49307310.0.wav'
p694
aS'c15_16_14936.89_14937.82.wav'
p695
aS'15_16_44253.91_44254.53.wav'
p696
aS'c15_16_51.2_52.51.wav'
p697
aS'23_15_30129.46_30130.06.wav'
p698
aS'23_15_37330.32_37331.27.wav'
p699
aS'C25_08_403.01_404.31.wav'
p700
aS'15_16_44020.53_44021.3.wav'
p701
aS'c22_15_53081190.0_53082040.0.wav'
p702
aS'c15_16_34.57_35.21.wav'
p703
aS'15_16_39276.96_39277.56.wav'
p704
aS'c15_16_33706.54_33707.96.wav'
p705
aS'C25_08_44370.2_44374.36.wav'
p706
aS'15_16_32147.27_32148.35.wav'
p707
aS'15_16_30010.71_30011.97.wav'
p708
aS'15_16_9546.64_9547.25.wav'
p709
aS'c15_16_12966.34_12967.9.wav'
p710
aS'C25_08_23695.16_23695.88.wav'
p711
aS'15_16_1020.36_1021.22.wav'
p712
aS'15_16_44057.42_44058.03.wav'
p713
aS'c15_16_3684.9_3685.5.wav'
p714
aS'23_15_22210.65_22211.25.wav'
p715
aS'c22_15_44870150.0_44870780.0.wav'
p716
aS'23_15_12737.02_12738.35.wav'
p717
aS'c15_16_34449.8_34450.49.wav'
p718
aS'c22_15_48408490.0_48409090.0.wav'
p719
aS'23_15_49035.72_49038.33.wav'
p720
aS'c15_16_5629.99_5630.61.wav'
p721
aS'23_15_2522.99_2525.28.wav'
p722
aS'04_08_3423.75_3424.58.wav'
p723
aS'23_15_40428.41_40429.22.wav'
p724
aS'c22_15_52140490.0_52141170.0.wav'
p725
aS'04_08_31825.44_31826.28.wav'
p726
aS'04_08_35033.43_35034.04.wav'
p727
aS'C25_08_56479.45_56480.06.wav'
p728
aS'c15_16_11883.99_11884.59.wav'
p729
aS'04_08_47438.27_47439.7.wav'
p730
aS'15_16_7031.57_7032.17.wav'
p731
aS'c22_15_53129390.0_53129990.0.wav'
p732
aS'04_08_25225.67_25226.79.wav'
p733
aS'C25_08_44402.75_44403.46.wav'
p734
aS'23_15_5581.38_5583.06.wav'
p735
aS'23_15_30970.24_30973.23.wav'
p736
aS'04_08_43027.02_43027.83.wav'
p737
aS'04_08_46327.54_46330.24.wav'
p738
aS'c22_15_49038560.0_49039570.0.wav'
p739
aS'23_15_25993.93_25994.88.wav'
p740
aS'c15_16_34554.01_34555.47.wav'
p741
aS'23_15_56228.11_56228.72.wav'
p742
aS'15_16_4346.1_4346.9.wav'
p743
aS'04_08_13864.3_13865.45.wav'
p744
aS'04_08_33451.03_33452.27.wav'
p745
aS'c15_16_10874.9_10875.5.wav'
p746
aS'04_08_31860.78_31862.22.wav'
p747
aS'c22_15_46183500.0_46184450.0.wav'
p748
aS'C25_08_31490.26_31490.86.wav'
p749
aS'c22_15_50459720.0_50460320.0.wav'
p750
aS'C25_08_4554.43_4555.38.wav'
p751
aS'15_16_33761.5_33762.1.wav'
p752
aS'15_16_4074.86_4075.97.wav'
p753
aS'c15_16_3493.47_3494.61.wav'
p754
aS'23_15_20858.81_20861.05.wav'
p755
aS'c22_15_53194670.0_53198240.0.wav'
p756
aS'04_08_33728.69_33729.6.wav'
p757
aS'15_16_48268.05_48269.05.wav'
p758
aS'04_08_29603.83_29604.52.wav'
p759
aS'c22_15_48950960.0_48952160.0.wav'
p760
aS'04_08_33439.9_33440.9.wav'
p761
aS'c15_16_34258.65_34260.91.wav'
p762
aS'15_16_19085.95_19086.55.wav'
p763
aS'15_16_5635.74_5636.38.wav'
p764
aS'c22_15_56876160.0_56876980.0.wav'
p765
aS'c22_15_55987350.0_55988250.0.wav'
p766
aS'15_16_37313.73_37314.53.wav'
p767
aS'C25_08_1255.42_1256.29.wav'
p768
aS'C25_08_14087.6_14088.36.wav'
p769
aS'c15_16_25439.84_25440.64.wav'
p770
aS'23_15_10785.95_10787.66.wav'
p771
aS'C25_08_28372.72_28373.32.wav'
p772
aS'04_08_30586.0_30587.11.wav'
p773
aS'c22_15_4263710.0_4264310.0.wav'
p774
aS'c15_16_33531.09_33531.91.wav'
p775
aS'C25_08_40190.05_40191.59.wav'
p776
aS'23_15_56395.41_56403.65.wav'
p777
aS'C25_08_29255.43_29256.33.wav'
p778
aS'04_08_1505.38_1506.75.wav'
p779
aS'c15_16_14416.81_14418.33.wav'
p780
aS'c15_16_32208.03_32210.08.wav'
p781
aS'04_08_33846.5_33847.21.wav'
p782
aS'c15_16_35719.39_35720.63.wav'
p783
aS'23_15_38878.59_38879.52.wav'
p784
aS'23_15_16555.98_16556.58.wav'
p785
aS'c22_15_47117550.0_47118150.0.wav'
p786
aS'c22_15_51487460.0_51488060.0.wav'
p787
aS'C25_08_23736.71_23737.71.wav'
p788
aS'C25_08_21019.26_21020.1.wav'
p789
aS'c22_15_48296040.0_48298460.0.wav'
p790
aS'23_15_35141.68_35143.16.wav'
p791
aS'C25_08_19636.11_19637.3.wav'
p792
aS'15_16_46677.66_46678.63.wav'
p793
aS'c22_15_50053270.0_50054310.0.wav'
p794
aS'C25_08_20324.02_20325.2.wav'
p795
aS'c22_15_48716510.0_48717110.0.wav'
p796
aS'C25_08_27008.04_27009.52.wav'
p797
aS'15_16_31216.51_31217.11.wav'
p798
aS'04_08_28702.39_28702.99.wav'
p799
aS'c15_16_17280.41_17281.44.wav'
p800
aS'C25_08_49024.32_49025.19.wav'
p801
aS'15_16_3375.5_3376.51.wav'
p802
aS'c15_16_24476.95_24477.86.wav'
p803
aS'15_16_33868.88_33871.62.wav'
p804
aS'04_08_47763.51_47764.36.wav'
p805
aS'C25_08_22007.03_22007.65.wav'
p806
aS'04_08_35387.0_35388.14.wav'
p807
aS'15_16_39741.37_39741.99.wav'
p808
aS'04_08_18396.19_18396.95.wav'
p809
aS'c15_16_20712.2_20713.28.wav'
p810
aS'C25_08_39260.89_39261.49.wav'
p811
aS'C25_08_37909.32_37909.92.wav'
p812
aS'15_16_32758.97_32760.62.wav'
p813
aS'04_08_35775.22_35775.87.wav'
p814
aS'23_15_29566.58_29567.25.wav'
p815
aS'C25_08_22435.61_22436.21.wav'
p816
aS'c22_15_46142350.0_46144140.0.wav'
p817
aS'c22_15_48055680.0_48056660.0.wav'
p818
aS'c22_15_57094980.0_57096040.0.wav'
p819
aS'15_16_16808.65_16809.25.wav'
p820
aS'23_15_56418.1_56418.9.wav'
p821
aS'23_15_46568.86_46569.92.wav'
p822
aS'c22_15_49013410.0_49014020.0.wav'
p823
aS'23_15_9103.2_9103.85.wav'
p824
aS'c22_15_53209550.0_53211240.0.wav'
p825
aS'C25_08_3684.24_3684.97.wav'
p826
aS'C25_08_21142.98_21144.95.wav'
p827
aS'c22_15_57001260.0_57001980.0.wav'
p828
aS'04_08_31309.43_31310.09.wav'
p829
aS'c15_16_885.01_885.81.wav'
p830
aS'C25_08_40182.33_40183.59.wav'
p831
aS'C25_08_9602.34_9602.95.wav'
p832
aS'C25_08_2684.12_2684.74.wav'
p833
aS'04_08_471.3_472.4.wav'
p834
aS'c22_15_7478810.0_7479910.0.wav'
p835
aS'23_15_12633.53_12635.36.wav'
p836
aS'c15_16_13198.88_13200.08.wav'
p837
aS'C25_08_4252.62_4253.22.wav'
p838
aS'c15_16_9570.9_9573.03.wav'
p839
aS'c15_16_32014.6_32015.4.wav'
p840
aS'23_15_45658.34_45659.21.wav'
p841
aS'c22_15_1292540.0_1293860.0.wav'
p842
aS'C25_08_21104.88_21105.49.wav'
p843
aS'23_15_38709.59_38711.5.wav'
p844
aS'04_08_41838.15_41838.75.wav'
p845
aS'04_08_16384.8_16385.8.wav'
p846
aS'23_15_1261.18_1261.78.wav'
p847
aS'c15_16_19650.3_19651.1.wav'
p848
aS'c22_15_1297640.0_1302560.0.wav'
p849
aS'23_15_44849.35_44849.95.wav'
p850
aS'C25_08_22539.78_22540.38.wav'
p851
aS'23_15_29958.4_29959.82.wav'
p852
aS'23_15_48268.68_48269.48.wav'
p853
aS'C25_08_49479.49_49480.54.wav'
p854
aS'15_16_15808.19_15808.79.wav'
p855
aS'15_16_36885.2_36885.97.wav'
p856
aS'04_08_741.06_741.75.wav'
p857
aS'c22_15_57045500.0_57047680.0.wav'
p858
aS'04_08_32438.62_32439.25.wav'
p859
aS'15_16_44100.88_44101.48.wav'
p860
aS'c15_16_21874.85_21876.92.wav'
p861
aS'C25_08_29422.21_29423.59.wav'
p862
aS'15_16_44907.98_44908.71.wav'
p863
aS'15_16_33979.76_33981.05.wav'
p864
aS'04_08_46288.32_46289.52.wav'
p865
aS'04_08_33774.45_33775.39.wav'
p866
aS'23_15_7478.76_7480.33.wav'
p867
aS'c15_16_24428.71_24431.95.wav'
p868
aS'15_16_9464.06_9464.66.wav'
p869
aS'23_15_27905.15_27905.99.wav'
p870
aS'c22_15_51066090.0_51067110.0.wav'
p871
aS'23_15_36614.59_36615.23.wav'
p872
aS'04_08_786.36_788.86.wav'
p873
aS'15_16_11887.91_11888.9.wav'
p874
aS'C25_08_30052.44_30053.04.wav'
p875
aS'C25_08_55985.89_55986.94.wav'
p876
aS'C25_08_21482.3_21482.9.wav'
p877
aS'c22_15_57029000.0_57029610.0.wav'
p878
aS'04_08_43825.84_43828.2.wav'
p879
aS'C25_08_5409.91_5410.92.wav'
p880
aS'c15_16_25191.61_25192.54.wav'
p881
aS'23_15_17415.05_17416.59.wav'
p882
aS'04_08_34127.55_34128.61.wav'
p883
aS'c22_15_56986540.0_56987780.0.wav'
p884
aS'c15_16_20552.7_20553.3.wav'
p885
aS'04_08_46679.25_46680.62.wav'
p886
aS'C25_08_28390.67_28391.27.wav'
p887
aS'04_08_19350.65_19351.25.wav'
p888
aS'C25_08_6654.02_6654.96.wav'
p889
aS'15_16_9088.15_9088.75.wav'
p890
aS'04_08_29846.51_29847.16.wav'
p891
aS'c15_16_17514.19_17514.86.wav'
p892
aS'c22_15_45219350.0_45220100.0.wav'
p893
aS'04_08_2389.32_2390.3.wav'
p894
aS'c15_16_30333.14_30333.85.wav'
p895
aS'23_15_18448.18_18449.24.wav'
p896
aS'c22_15_48869370.0_48870040.0.wav'
p897
aS'04_08_7918.54_7919.46.wav'
p898
aS'04_08_2463.38_2464.44.wav'
p899
aS'c22_15_51172360.0_51172960.0.wav'
p900
aS'04_08_28288.13_28289.59.wav'
p901
aS'c22_15_56922760.0_56924060.0.wav'
p902
aS'c22_15_2424780.0_2425690.0.wav'
p903
aS'04_08_12348.09_12353.25.wav'
p904
aS'04_08_2827.8_2828.4.wav'
p905
aS'04_08_34069.17_34070.44.wav'
p906
aS'23_15_44475.37_44475.97.wav'
p907
aS'C25_08_22788.97_22789.66.wav'
p908
aS'04_08_25465.68_25466.28.wav'
p909
aS'C25_08_1776.99_1777.66.wav'
p910
aS'C25_08_29499.34_29500.74.wav'
p911
aS'C25_08_6596.17_6602.88.wav'
p912
aS'c15_16_31085.5_31086.1.wav'
p913
aS'04_08_30128.23_30128.83.wav'
p914
aS'15_16_38474.19_38474.92.wav'
p915
aS'c22_15_53399120.0_53403700.0.wav'
p916
aS'c22_15_50640430.0_50641130.0.wav'
p917
aS'c22_15_50657680.0_50658680.0.wav'
p918
aS'15_16_43191.21_43191.86.wav'
p919
aS'C25_08_28658.7_28659.47.wav'
p920
aS'04_08_28801.32_28802.06.wav'
p921
aS'15_16_46893.39_46894.0.wav'
p922
aS'15_16_7196.51_7197.26.wav'
p923
aS'15_16_37159.92_37160.6.wav'
p924
aS'23_15_25815.95_25816.84.wav'
p925
aS'15_16_46571.09_46572.56.wav'
p926
aS'c22_15_57487330.0_57487950.0.wav'
p927
aS'C25_08_17230.46_17231.47.wav'
p928
aS'15_16_217.95_219.26.wav'
p929
aS'C25_08_21366.5_21367.52.wav'
p930
aS'c15_16_27472.73_27474.18.wav'
p931
aS'C25_08_24368.16_24370.02.wav'
p932
aS'04_08_34910.49_34911.64.wav'
p933
aS'c15_16_20632.19_20632.79.wav'
p934
aS'C25_08_29571.24_29572.19.wav'
p935
aS'c15_16_14039.44_14040.44.wav'
p936
aS'c15_16_5606.21_5606.81.wav'
p937
aS'c15_16_35679.77_35681.5.wav'
p938
aS'15_16_39614.26_39615.02.wav'
p939
aS'04_08_40363.27_40363.89.wav'
p940
aS'C25_08_1125.15_1125.92.wav'
p941
aS'c15_16_26394.36_26395.42.wav'
p942
aS'15_16_31008.11_31009.3.wav'
p943
aS'15_16_804.0_804.61.wav'
p944
aS'c22_15_2641220.0_2642330.0.wav'
p945
aS'04_08_19037.86_19038.6.wav'
p946
aS'c22_15_57351240.0_57352370.0.wav'
p947
aS'c15_16_29910.31_29911.39.wav'
p948
aS'23_15_2615.05_2616.4.wav'
p949
aS'C25_08_28842.66_28843.26.wav'
p950
aS'C25_08_9415.32_9416.75.wav'
p951
aS'c15_16_30670.86_30671.46.wav'
p952
aS'c22_15_50798100.0_50799700.0.wav'
p953
aS'c22_15_1069230.0_1069830.0.wav'
p954
aS'c15_16_35834.84_35836.63.wav'
p955
aS'c22_15_49342090.0_49342710.0.wav'
p956
aS'23_15_2186.12_2186.77.wav'
p957
aS'04_08_43875.87_43876.48.wav'
p958
aS'15_16_2631.59_2632.25.wav'
p959
aS'c22_15_48271170.0_48272210.0.wav'
p960
aS'15_16_34565.19_34566.37.wav'
p961
aS'04_08_34912.64_34913.26.wav'
p962
aS'C25_08_21509.51_21511.14.wav'
p963
aS'c15_16_21794.7_21798.84.wav'
p964
aS'23_15_12664.65_12665.25.wav'
p965
aS'c15_16_18471.64_18472.63.wav'
p966
aS'c22_15_5331260.0_5331910.0.wav'
p967
aS'c22_15_48959260.0_48960640.0.wav'
p968
aS'c15_16_3989.53_3990.33.wav'
p969
aS'c15_16_23929.12_23929.72.wav'
p970
aS'c15_16_10911.59_10912.19.wav'
p971
aS'15_16_8641.34_8642.91.wav'
p972
aS'23_15_8693.21_8694.53.wav'
p973
aS'04_08_1600.99_1602.07.wav'
p974
aS'c15_16_25578.6_25579.25.wav'
p975
aS'23_15_33833.01_33833.79.wav'
p976
aS'23_15_9219.28_9219.95.wav'
p977
aS'15_16_9971.93_9972.53.wav'
p978
aS'23_15_39344.84_39348.24.wav'
p979
aS'c15_16_30795.16_30795.76.wav'
p980
aS'23_15_38364.7_38365.67.wav'
p981
aS'23_15_21748.15_21748.86.wav'
p982
aS'c15_16_27570.98_27571.98.wav'
p983
aS'C25_08_9554.31_9554.91.wav'
p984
aS'c22_15_57019800.0_57020420.0.wav'
p985
aS'c22_15_56969280.0_56971310.0.wav'
p986
aS'c22_15_45242860.0_45243670.0.wav'
p987
aS'c15_16_3823.79_3824.4.wav'
p988
aS'04_08_34663.8_34664.61.wav'
p989
aS'c15_16_24199.56_24201.6.wav'
p990
aS'15_16_2596.44_2597.34.wav'
p991
aS'c15_16_3856.74_3857.74.wav'
p992
aS'23_15_12987.53_12988.89.wav'
p993
aS'c15_16_18052.25_18052.86.wav'
p994
aS'c22_15_52166840.0_52167450.0.wav'
p995
aS'23_15_36800.56_36801.69.wav'
p996
aS'23_15_28070.21_28072.14.wav'
p997
aS'C25_08_49436.81_49438.63.wav'
p998
aS'23_15_45481.59_45482.19.wav'
p999
aS'23_15_8082.27_8083.01.wav'
p1000
aS'c22_15_46256280.0_46257150.0.wav'
p1001
aS'15_16_17674.0_17675.57.wav'
p1002
aS'C25_08_18541.25_18542.11.wav'
p1003
aS'15_16_12788.86_12792.42.wav'
p1004
aS'04_08_35862.21_35863.21.wav'
p1005
aS'c15_16_19865.55_19866.47.wav'
p1006
aS'C25_08_24139.9_24140.64.wav'
p1007
aS'C25_08_28941.91_28944.76.wav'
p1008
aS'23_15_21592.03_21593.07.wav'
p1009
aS'c22_15_51470610.0_51472550.0.wav'
p1010
aS'04_08_39583.53_39584.63.wav'
p1011
aS'c22_15_50183720.0_50184320.0.wav'
p1012
aS'c22_15_48015650.0_48016500.0.wav'
p1013
aS'c22_15_52818370.0_52818970.0.wav'
p1014
aS'c22_15_53141140.0_53146380.0.wav'
p1015
aS'04_08_34101.6_34105.4.wav'
p1016
aS'C25_08_20049.46_20051.1.wav'
p1017
aS'23_15_23221.15_23223.05.wav'
p1018
aS'23_15_56193.25_56194.88.wav'
p1019
aS'c15_16_17011.56_17013.15.wav'
p1020
aS'C25_08_23779.0_23780.13.wav'
p1021
aS'15_16_31372.35_31374.15.wav'
p1022
aS'15_16_31894.57_31899.78.wav'
p1023
aS'23_15_34325.01_34325.83.wav'
p1024
aS'C25_08_27302.23_27305.42.wav'
p1025
aS'04_08_17541.13_17542.27.wav'
p1026
aS'15_16_44994.55_44995.32.wav'
p1027
aS'23_15_30887.7_30888.46.wav'
p1028
aS'C25_08_57277.98_57278.58.wav'
p1029
aS'C25_08_14176.69_14177.73.wav'
p1030
aS'04_08_34224.27_34227.51.wav'
p1031
aS'23_15_47629.76_47630.52.wav'
p1032
aS'04_08_46496.32_46497.24.wav'
p1033
aS'C25_08_1119.98_1121.19.wav'
p1034
aS'c15_16_19734.28_19735.33.wav'
p1035
aS'c15_16_6669.04_6670.2.wav'
p1036
aS'c22_15_53301300.0_53302620.0.wav'
p1037
aS'04_08_13684.67_13685.27.wav'
p1038
aS'15_16_39807.73_39809.51.wav'
p1039
aS'23_15_18580.28_18581.09.wav'
p1040
aS'C25_08_16222.07_16223.09.wav'
p1041
aS'c22_15_53229770.0_53230370.0.wav'
p1042
aS'15_16_38887.3_38888.99.wav'
p1043
aS'04_08_29223.68_29224.52.wav'
p1044
aS'15_16_3768.47_3771.19.wav'
p1045
aS'c22_15_49281290.0_49282310.0.wav'
p1046
aS'04_08_43477.77_43478.37.wav'
p1047
aS'23_15_7021.33_7021.93.wav'
p1048
aS'04_08_46607.92_46608.57.wav'
p1049
aS'c15_16_5385.29_5385.89.wav'
p1050
aS'23_15_39361.4_39362.02.wav'
p1051
aS'c22_15_45403730.0_45404820.0.wav'
p1052
aS'15_16_13175.3_13175.9.wav'
p1053
aS'23_15_26849.37_26850.09.wav'
p1054
aS'23_15_8104.84_8105.64.wav'
p1055
aS'c22_15_49010550.0_49011160.0.wav'
p1056
aS'04_08_45380.83_45381.5.wav'
p1057
aS'c22_15_6162330.0_6162930.0.wav'
p1058
aS'C25_08_11350.54_11351.34.wav'
p1059
aS'c22_15_50641930.0_50642650.0.wav'
p1060
aS'c22_15_1321820.0_1323700.0.wav'
p1061
aS'15_16_32368.21_32368.81.wav'
p1062
aS'15_16_44818.96_44820.0.wav'
p1063
aS'04_08_34209.5_34210.9.wav'
p1064
aS'23_15_46720.3_46720.99.wav'
p1065
aS'c22_15_53639120.0_53639780.0.wav'
p1066
aS'C25_08_33095.42_33097.96.wav'
p1067
aS'C25_08_584.57_585.29.wav'
p1068
aS'04_08_19453.73_19454.51.wav'
p1069
aS'04_08_28274.69_28275.64.wav'
p1070
aS'c15_16_31184.62_31185.22.wav'
p1071
aS'23_15_5449.19_5449.85.wav'
p1072
aS'c22_15_53800550.0_53804060.0.wav'
p1073
aS'23_15_39298.97_39301.58.wav'
p1074
aS'c22_15_50443900.0_50444520.0.wav'
p1075
aS'23_15_39332.99_39336.33.wav'
p1076
aS'04_08_46498.37_46499.71.wav'
p1077
aS'c15_16_31190.74_31191.39.wav'
p1078
aS'23_15_41510.6_41511.72.wav'
p1079
aS'C25_08_55749.36_55751.37.wav'
p1080
aS'C25_08_39329.32_39329.93.wav'
p1081
aS'15_16_125.33_126.06.wav'
p1082
aS'15_16_36734.49_36735.87.wav'
p1083
aS'C25_08_23485.98_23486.58.wav'
p1084
aS'23_15_40742.71_40743.31.wav'
p1085
aS'15_16_2143.47_2144.07.wav'
p1086
aS'04_08_17147.67_17148.83.wav'
p1087
aS'04_08_30698.71_30700.83.wav'
p1088
aS'15_16_44319.0_44319.74.wav'
p1089
aS'04_08_40386.4_40388.22.wav'
p1090
aS'23_15_17919.98_17921.9.wav'
p1091
aS'15_16_42649.03_42649.63.wav'
p1092
aS'23_15_26077.31_26079.3.wav'
p1093
aS'15_16_17297.32_17298.3.wav'
p1094
aS'23_15_832.54_833.17.wav'
p1095
aS'c15_16_14848.11_14848.72.wav'
p1096
aS'C25_08_28864.09_28864.97.wav'
p1097
aS'C25_08_14999.48_15000.29.wav'
p1098
aS'c15_16_14243.84_14244.73.wav'
p1099
aS'04_08_837.24_839.19.wav'
p1100
aS'C25_08_987.34_988.01.wav'
p1101
aS'04_08_32191.16_32191.87.wav'
p1102
aS'c22_15_51266290.0_51266910.0.wav'
p1103
aS'04_08_44998.53_44999.41.wav'
p1104
aS'15_16_32347.47_32348.17.wav'
p1105
aS'04_08_12361.1_12362.18.wav'
p1106
aS'C25_08_4337.27_4337.87.wav'
p1107
aS'C25_08_16226.46_16227.1.wav'
p1108
aS'C25_08_44897.36_44898.73.wav'
p1109
aS'C25_08_3167.32_3167.92.wav'
p1110
aS'c22_15_57383760.0_57384900.0.wav'
p1111
aS'04_08_35723.69_35724.33.wav'
p1112
aS'c15_16_21215.35_21215.95.wav'
p1113
aS'23_15_48564.57_48565.62.wav'
p1114
aS'23_15_18279.47_18281.16.wav'
p1115
aS'04_08_46579.16_46581.51.wav'
p1116
aS'C25_08_44365.64_44367.49.wav'
p1117
aS'c15_16_26317.51_26320.61.wav'
p1118
aS'C25_08_29266.82_29267.43.wav'
p1119
aS'15_16_45895.15_45896.12.wav'
p1120
aS'c22_15_57009550.0_57012280.0.wav'
p1121
aS'c15_16_24466.88_24467.58.wav'
p1122
aS'23_15_3626.03_3628.56.wav'
p1123
aS'c15_16_14104.87_14106.04.wav'
p1124
aS'C25_08_27036.92_27037.92.wav'
p1125
aS'23_15_4018.78_4019.38.wav'
p1126
aS'c22_15_51514930.0_51515530.0.wav'
p1127
aS'15_16_14205.68_14206.51.wav'
p1128
aS'C25_08_43708.72_43709.51.wav'
p1129
aS'04_08_34065.95_34067.35.wav'
p1130
aS'15_16_44402.1_44403.02.wav'
p1131
aS'c22_15_53627200.0_53628210.0.wav'
p1132
aS'23_15_48922.03_48922.63.wav'
p1133
aS'15_16_220.09_220.78.wav'
p1134
aS'04_08_47431.32_47431.93.wav'
p1135
aS'15_16_11952.66_11953.89.wav'
p1136
aS'23_15_22374.31_22374.97.wav'
p1137
aS'c22_15_47857790.0_47858530.0.wav'
p1138
aS'c15_16_20714.45_20715.1.wav'
p1139
aS'c15_16_44386.53_44387.2.wav'
p1140
aVc15_16_13726.31_13726.91.wav
p1141
aVc15_16_5616.47_5617.2.wav
p1142
aVc22_15_51468570.0_51469220.0.wav
p1143
aVC25_08_292.09_292.69.wav
p1144
aVC25_08_18031.8_18032.43.wav
p1145
aV15_16_36961.74_36963.48.wav
p1146
aVc15_16_34697.69_34698.8.wav
p1147
aV23_15_18524.18_18526.83.wav
p1148
aV15_16_15160.82_15161.82.wav
p1149
aVc22_15_50788440.0_50792140.0.wav
p1150
aVc15_16_31680.49_31681.22.wav
p1151
aV23_15_13640.91_13641.51.wav
p1152
aVc15_16_12010.21_12011.04.wav
p1153
aV04_08_3466.93_3468.64.wav
p1154
aV23_15_46564.91_46565.54.wav
p1155
aV04_08_8536.32_8537.29.wav
p1156
aVc22_15_55970460.0_55971480.0.wav
p1157
aVc15_16_34766.26_34767.66.wav
p1158
aVc22_15_49065420.0_49066080.0.wav
p1159
aVc15_16_14527.67_14528.45.wav
p1160
aVc15_16_14245.78_14246.6.wav
p1161
aV15_16_2016.81_2017.67.wav
p1162
aV23_15_20354.77_20355.89.wav
p1163
aVC25_08_30855.78_30857.53.wav
p1164
aVc22_15_48814930.0_48815930.0.wav
p1165
aVc22_15_48738920.0_48740170.0.wav
p1166
aVc22_15_57064780.0_57066290.0.wav
p1167
aV23_15_48872.06_48872.9.wav
p1168
aVc22_15_55085660.0_55086410.0.wav
p1169
aVc15_16_9523.42_9533.45.wav
p1170
aV23_15_10746.48_10748.35.wav
p1171
aV15_16_36425.48_36426.22.wav
p1172
aV23_15_18421.01_18423.73.wav
p1173
aVc15_16_11450.75_11451.49.wav
p1174
aV23_15_10806.9_10807.99.wav
p1175
aV15_16_39873.03_39874.94.wav
p1176
aVC25_08_23679.28_23680.44.wav
p1177
aVC25_08_528.27_528.87.wav
p1178
aVc15_16_34839.51_34840.4.wav
p1179
aVc15_16_34012.91_34013.55.wav
p1180
aVC25_08_19170.84_19171.44.wav
p1181
aV15_16_44222.79_44223.4.wav
p1182
aV04_08_35882.74_35883.73.wav
p1183
aVc15_16_19680.92_19681.97.wav
p1184
aV23_15_48451.28_48451.92.wav
p1185
aVc15_16_34184.64_34185.41.wav
p1186
aV23_15_1222.23_1223.17.wav
p1187
aV23_15_37964.29_37965.02.wav
p1188
aVc22_15_56269860.0_56270460.0.wav
p1189
aVc15_16_33962.52_33963.24.wav
p1190
aVC25_08_25120.63_25121.29.wav
p1191
aVc15_16_25200.09_25200.96.wav
p1192
aV04_08_8092.67_8095.53.wav
p1193
aV04_08_28659.9_28661.14.wav
p1194
aV23_15_46584.52_46585.33.wav
p1195
aV23_15_46690.2_46691.3.wav
p1196
aV15_16_187.48_190.62.wav
p1197
aV23_15_16984.61_16985.42.wav
p1198
aVc15_16_6498.09_6498.84.wav
p1199
aVc15_16_34228.52_34230.65.wav
p1200
aVc15_16_22033.89_22034.49.wav
p1201
aV04_08_28580.57_28586.46.wav
p1202
aVC25_08_15641.0_15641.72.wav
p1203
aV04_08_45598.24_45599.08.wav
p1204
aV23_15_47664.76_47665.88.wav
p1205
aVc22_15_53564360.0_53565730.0.wav
p1206
aVC25_08_15622.72_15625.54.wav
p1207
aVc15_16_27166.28_27167.2.wav
p1208
aV04_08_30135.14_30135.74.wav
p1209
aV23_15_34949.39_34949.99.wav
p1210
aVc22_15_53224880.0_53226420.0.wav
p1211
aV15_16_47016.65_47017.79.wav
p1212
aVc15_16_31638.45_31639.05.wav
p1213
aV15_16_2179.67_2180.27.wav
p1214
aV04_08_35846.29_35846.92.wav
p1215
aV15_16_11144.84_11145.53.wav
p1216
aV15_16_37350.65_37351.25.wav
p1217
aV15_16_46706.0_46706.6.wav
p1218
aVC25_08_55917.36_55922.85.wav
p1219
aV04_08_34715.22_34716.99.wav
p1220
aVc15_16_1501.16_1502.74.wav
p1221
aVc15_16_1812.95_1813.75.wav
p1222
aVc22_15_1355090.0_1356010.0.wav
p1223
aVC25_08_21076.64_21077.26.wav
p1224
aV15_16_45870.54_45872.39.wav
p1225
aV23_15_17465.77_17468.75.wav
p1226
aV23_15_44645.87_44646.76.wav
p1227
aV15_16_1981.75_1982.35.wav
p1228
aVc22_15_53268580.0_53270820.0.wav
p1229
aVC25_08_18152.65_18153.89.wav
p1230
aV15_16_34412.54_34413.48.wav
p1231
aV15_16_10586.97_10587.57.wav
p1232
aV23_15_49174.53_49175.33.wav
p1233
aV04_08_1569.85_1570.45.wav
p1234
aVc22_15_47775710.0_47776350.0.wav
p1235
aV04_08_8769.04_8769.64.wav
p1236
aV23_15_18498.28_18499.32.wav
p1237
aVc15_16_7162.16_7163.16.wav
p1238
aVc15_16_20188.93_20189.73.wav
p1239
aV15_16_10889.97_10891.24.wav
p1240
aV04_08_8052.74_8053.54.wav
p1241
aV15_16_59.26_59.86.wav
p1242
aV23_15_2247.24_2248.46.wav
p1243
aV15_16_47135.63_47136.26.wav
p1244
aV23_15_28439.98_28442.26.wav
p1245
aVC25_08_18081.28_18081.92.wav
p1246
aV04_08_17321.85_17325.26.wav
p1247
aV04_08_1010.32_1011.29.wav
p1248
aV23_15_19944.41_19945.31.wav
p1249
aV23_15_41826.82_41827.42.wav
p1250
aV04_08_44449.17_44450.39.wav
p1251
aVC25_08_20688.93_20690.84.wav
p1252
aVc15_16_36567.25_36567.95.wav
p1253
aVC25_08_3625.53_3627.28.wav
p1254
aVc22_15_53212440.0_53213040.0.wav
p1255
aVc22_15_51336570.0_51337180.0.wav
p1256
aVc22_15_51279100.0_51281340.0.wav
p1257
aVc15_16_34180.4_34181.2.wav
p1258
aVC25_08_39273.27_39273.92.wav
p1259
aVc22_15_1062020.0_1062660.0.wav
p1260
aVC25_08_22247.94_22249.44.wav
p1261
aVc15_16_25805.97_25806.6.wav
p1262
aVC25_08_16503.85_16504.73.wav
p1263
aV23_15_31852.4_31853.01.wav
p1264
aVC25_08_26893.67_26895.56.wav
p1265
aVC25_08_11261.9_11262.56.wav
p1266
aV23_15_9555.3_9555.94.wav
p1267
aV23_15_9834.77_9835.48.wav
p1268
aV04_08_43562.58_43563.18.wav
p1269
aV15_16_46445.75_46447.35.wav
p1270
aVc22_15_46881470.0_46883170.0.wav
p1271
aVc22_15_53798960.0_53799640.0.wav
p1272
aV15_16_6655.71_6656.99.wav
p1273
aVc22_15_49821590.0_49822200.0.wav
p1274
aV23_15_56176.48_56177.6.wav
p1275
aVc22_15_51287280.0_51288870.0.wav
p1276
aVC25_08_9269.47_9270.07.wav
p1277
aVc15_16_26792.33_26793.21.wav
p1278
aV23_15_39284.94_39285.56.wav
p1279
aV23_15_29759.77_29760.77.wav
p1280
aVc15_16_4723.5_4724.1.wav
p1281
aVc15_16_31122.62_31123.51.wav
p1282
aV04_08_28302.19_28306.57.wav
p1283
aV23_15_34999.01_35000.22.wav
p1284
aVc22_15_48733590.0_48734230.0.wav
p1285
aVC25_08_23533.97_23534.57.wav
p1286
aVc22_15_8267050.0_8268050.0.wav
p1287
aV23_15_39930.63_39931.29.wav
p1288
aVC25_08_19289.89_19290.63.wav
p1289
aV15_16_246.99_248.88.wav
p1290
aVc22_15_51365830.0_51366620.0.wav
p1291
aVc22_15_50901350.0_50902420.0.wav
p1292
aV23_15_48689.36_48691.18.wav
p1293
aVc15_16_11067.73_11068.33.wav
p1294
aVc15_16_23266.07_23266.82.wav
p1295
aVc22_15_49144120.0_49145340.0.wav
p1296
aV15_16_42609.92_42610.57.wav
p1297
aVc15_16_19576.42_19577.42.wav
p1298
aV04_08_46675.67_46676.84.wav
p1299
aV04_08_47431.93_47432.96.wav
p1300
aVc15_16_21889.14_21889.74.wav
p1301
aV04_08_43479.17_43479.77.wav
p1302
aV04_08_39608.89_39610.19.wav
p1303
aV23_15_41188.74_41189.62.wav
p1304
aV04_08_25568.04_25568.64.wav
p1305
aV15_16_4502.15_4504.14.wav
p1306
aVc15_16_2279.61_2280.25.wav
p1307
aV23_15_44503.19_44503.79.wav
p1308
aV23_15_22454.95_22457.49.wav
p1309
aV23_15_13903.56_13910.5.wav
p1310
aVc22_15_46154040.0_46154770.0.wav
p1311
aVC25_08_17279.74_17282.04.wav
p1312
aV15_16_36682.86_36683.46.wav
p1313
aV23_15_27859.5_27860.22.wav
p1314
aV23_15_9503.43_9504.03.wav
p1315
aVC25_08_18661.94_18662.54.wav
p1316
aVc15_16_10848.54_10849.83.wav
p1317
aVc22_15_54020680.0_54021280.0.wav
p1318
aV15_16_127.49_130.23.wav
p1319
aVc15_16_27582.91_27585.1.wav
p1320
aV15_16_37245.84_37246.62.wav
p1321
aV15_16_31342.62_31343.62.wav
p1322
aV23_15_31702.68_31703.36.wav
p1323
aVC25_08_23024.15_23026.94.wav
p1324
aVc15_16_7186.27_7186.87.wav
p1325
aV15_16_43934.38_43935.0.wav
p1326
aV15_16_36999.39_36999.99.wav
p1327
aV15_16_41476.54_41477.29.wav
p1328
aVc22_15_53190000.0_53190940.0.wav
p1329
aV04_08_18929.18_18929.79.wav
p1330
aV15_16_38666.42_38667.11.wav
p1331
aV04_08_30342.57_30343.17.wav
p1332
aVc15_16_14379.13_14380.07.wav
p1333
aV15_16_42159.64_42160.64.wav
p1334
aV23_15_34599.72_34600.5.wav
p1335
aV15_16_42514.96_42515.84.wav
p1336
aV15_16_4977.13_4978.13.wav
p1337
aVc15_16_23979.42_23980.42.wav
p1338
aV15_16_1022.02_1023.06.wav
p1339
aVc22_15_44395820.0_44396430.0.wav
p1340
aV23_15_1408.71_1410.52.wav
p1341
aVc15_16_23698.7_23699.37.wav
p1342
aVC25_08_7126.25_7127.18.wav
p1343
aVc22_15_57078610.0_57079220.0.wav
p1344
aVC25_08_4021.19_4022.0.wav
p1345
aV15_16_45029.23_45029.83.wav
p1346
aV15_16_6898.87_6899.51.wav
p1347
aV15_16_7585.51_7586.44.wav
p1348
aVC25_08_28886.52_28887.45.wav
p1349
aV23_15_8228.63_8229.43.wav
p1350
aVc22_15_46418580.0_46419190.0.wav
p1351
aVC25_08_27118.37_27118.99.wav
p1352
aVC25_08_29844.88_29845.68.wav
p1353
aVC25_08_27593.37_27594.39.wav
p1354
aV04_08_2434.86_2435.59.wav
p1355
aV04_08_18522.19_18523.03.wav
p1356
aV23_15_9225.06_9227.45.wav
p1357
aVC25_08_12474.75_12475.65.wav
p1358
aVc22_15_4546860.0_4547730.0.wav
p1359
aVc22_15_51057790.0_51059790.0.wav
p1360
aVc15_16_10448.56_10449.39.wav
p1361
aVc15_16_31144.06_31145.05.wav
p1362
aVc22_15_53717100.0_53717870.0.wav
p1363
aVc15_16_13712.39_13713.14.wav
p1364
aV15_16_6645.95_6646.75.wav
p1365
aVc15_16_9119.35_9119.95.wav
p1366
aVc22_15_48235330.0_48236990.0.wav
p1367
aVc15_16_2746.7_2747.31.wav
p1368
aV23_15_14657.68_14661.16.wav
p1369
aVc22_15_51155790.0_51157310.0.wav
p1370
aV23_15_1262.66_1263.4.wav
p1371
aV15_16_4094.99_4096.93.wav
p1372
aVc22_15_52434190.0_52434870.0.wav
p1373
aVc15_16_19511.04_19512.05.wav
p1374
aV23_15_4460.71_4463.27.wav
p1375
aV04_08_17342.53_17343.83.wav
p1376
aV23_15_48044.75_48045.35.wav
p1377
aV15_16_36657.98_36659.22.wav
p1378
aVc15_16_53481.88_53482.56.wav
p1379
aVC25_08_49578.13_49578.73.wav
p1380
aV04_08_34538.24_34539.95.wav
p1381
aV04_08_34667.8_34671.06.wav
p1382
aV23_15_6477.36_6477.99.wav
p1383
aVc15_16_30256.32_30259.12.wav
p1384
aV23_15_44484.17_44485.38.wav
p1385
aV23_15_46059.61_46060.39.wav
p1386
aVc22_15_50756540.0_50757190.0.wav
p1387
aV04_08_46731.97_46732.57.wav
p1388
aV23_15_56220.44_56221.66.wav
p1389
aVc22_15_54029440.0_54030200.0.wav
p1390
aVC25_08_6556.81_6557.57.wav
p1391
aVc15_16_17793.26_17793.87.wav
p1392
aVC25_08_26899.07_26900.24.wav
p1393
aVC25_08_22588.14_22590.69.wav
p1394
aV04_08_43846.98_43847.58.wav
p1395
aVc22_15_49254080.0_49256070.0.wav
p1396
aVc22_15_52977030.0_52977750.0.wav
p1397
aV23_15_46619.04_46619.82.wav
p1398
aV23_15_30144.24_30146.96.wav
p1399
aVc15_16_19740.19_19743.16.wav
p1400
aVC25_08_608.05_608.81.wav
p1401
aV15_16_8888.42_8889.6.wav
p1402
aV04_08_19489.03_19489.67.wav
p1403
aVc15_16_5954.29_5955.82.wav
p1404
aV15_16_34649.43_34650.11.wav
p1405
aV23_15_48940.94_48942.46.wav
p1406
aV04_08_46677.64_46679.25.wav
p1407
aV23_15_38667.84_38669.3.wav
p1408
aVc15_16_14776.28_14778.03.wav
p1409
aVC25_08_7097.45_7098.15.wav
p1410
aVc22_15_42589690.0_42590750.0.wav
p1411
aV04_08_7928.44_7929.26.wav
p1412
aV23_15_24142.03_24143.1.wav
p1413
aVc15_16_1468.55_1469.31.wav
p1414
aV15_16_46077.39_46079.34.wav
p1415
aVC25_08_21121.83_21122.47.wav
p1416
aVc22_15_48831680.0_48833300.0.wav
p1417
aVc22_15_52491280.0_52491880.0.wav
p1418
aV23_15_129.67_131.1.wav
p1419
aVc15_16_9205.11_9205.71.wav
p1420
aVC25_08_20423.04_20423.65.wav
p1421
aVC25_08_15301.92_15302.53.wav
p1422
aV15_16_37072.3_37073.42.wav
p1423
aVc15_16_26482.3_26483.12.wav
p1424
aVC25_08_27224.84_27225.69.wav
p1425
aV15_16_41995.85_41996.54.wav
p1426
aVc22_15_51115630.0_51116550.0.wav
p1427
aV04_08_25896.36_25896.96.wav
p1428
aV15_16_34458.77_34460.51.wav
p1429
aVc22_15_57038400.0_57039460.0.wav
p1430
aV04_08_16695.77_16697.04.wav
p1431
aV04_08_34870.91_34871.57.wav
p1432
aVC25_08_4598.83_4600.35.wav
p1433
aVc15_16_21805.13_21805.73.wav
p1434
aV23_15_44760.09_44760.75.wav
p1435
aV04_08_17185.09_17185.69.wav
p1436
aVC25_08_27189.29_27189.9.wav
p1437
aV15_16_43901.62_43902.97.wav
p1438
aVC25_08_23053.14_23053.74.wav
p1439
aV04_08_13760.59_13761.2.wav
p1440
aVc22_15_57234950.0_57235550.0.wav
p1441
aVC25_08_27207.51_27208.97.wav
p1442
aV15_16_44134.84_44136.41.wav
p1443
aV04_08_44424.13_44424.73.wav
p1444
aVc15_16_3183.47_3184.28.wav
p1445
aVc22_15_53849990.0_53852780.0.wav
p1446
aVc22_15_53547620.0_53549560.0.wav
p1447
aV15_16_42868.51_42869.25.wav
p1448
aV04_08_8780.98_8781.59.wav
p1449
aV23_15_45609.01_45609.62.wav
p1450
aVC25_08_31519.7_31520.69.wav
p1451
aV23_15_44478.44_44479.07.wav
p1452
aV15_16_3743.3_3745.25.wav
p1453
aV04_08_26290.76_26291.43.wav
p1454
aV04_08_17944.18_17945.4.wav
p1455
aVc15_16_1821.52_1822.18.wav
p1456
aV23_15_26191.94_26192.73.wav
p1457
aVc22_15_48319040.0_48319750.0.wav
p1458
aVc22_15_57040350.0_57042370.0.wav
p1459
aVc15_16_24733.67_24734.83.wav
p1460
aV15_16_43787.27_43788.07.wav
p1461
aVc15_16_23051.4_23052.13.wav
p1462
aV04_08_35408.44_35409.17.wav
p1463
aVc15_16_25514.04_25514.64.wav
p1464
aV04_08_2497.14_2498.84.wav
p1465
aVC25_08_7254.72_7255.52.wav
p1466
aV04_08_47886.48_47887.53.wav
p1467
aV23_15_10519.6_10520.2.wav
p1468
aV15_16_37578.64_37579.51.wav
p1469
aV04_08_42532.52_42533.29.wav
p1470
aVc22_15_52164750.0_52165450.0.wav
p1471
aV23_15_56337.96_56338.57.wav
p1472
aV23_15_56357.38_56358.78.wav
p1473
aVc22_15_53684650.0_53685540.0.wav
p1474
aVC25_08_40093.88_40094.81.wav
p1475
aVC25_08_18345.54_18346.14.wav
p1476
aV04_08_47442.37_47444.14.wav
p1477
aV23_15_56429.48_56434.67.wav
p1478
aV15_16_17288.61_17289.22.wav
p1479
aV23_15_1445.87_1447.18.wav
p1480
aV23_15_19957.74_19959.05.wav
p1481
aV23_15_14883.58_14884.99.wav
p1482
aVc15_16_13949.44_13950.34.wav
p1483
aV04_08_43802.36_43803.03.wav
p1484
aV04_08_29500.29_29501.15.wav
p1485
aV04_08_28038.88_28039.78.wav
p1486
aVc15_16_11797.0_11797.76.wav
p1487
aV23_15_25633.82_25634.63.wav
p1488
aVC25_08_28287.52_28288.12.wav
p1489
aV23_15_28434.49_28435.36.wav
p1490
aVc22_15_40020.0_40620.0.wav
p1491
aVc15_16_6389.36_6390.49.wav
p1492
aV15_16_37366.97_37367.79.wav
p1493
aV15_16_6692.15_6692.82.wav
p1494
aVc15_16_25659.68_25660.28.wav
p1495
aV04_08_43668.42_43669.02.wav
p1496
aVC25_08_418.73_419.33.wav
p1497
aVc15_16_30789.09_30789.69.wav
p1498
aVc15_16_34438.18_34438.78.wav
p1499
aVC25_08_28128.12_28128.8.wav
p1500
aV23_15_22376.25_22377.04.wav
p1501
aV04_08_45824.87_45825.96.wav
p1502
aVc15_16_26315.87_26316.71.wav
p1503
aV15_16_46960.45_46962.34.wav
p1504
aVC25_08_16495.75_16496.35.wav
p1505
aVc15_16_21900.61_21901.59.wav
p1506
aVc22_15_52723770.0_52724370.0.wav
p1507
aVc15_16_35820.33_35821.33.wav
p1508
aV04_08_34071.24_34072.12.wav
p1509
aVC25_08_4067.2_4068.01.wav
p1510
aVc22_15_52319380.0_52320010.0.wav
p1511
aVc22_15_51259400.0_51260370.0.wav
p1512
aV23_15_46592.82_46596.66.wav
p1513
aVC25_08_23737.71_23738.34.wav
p1514
aV04_08_41100.13_41101.19.wav
p1515
aV15_16_40117.73_40118.55.wav
p1516
aVc15_16_20088.41_20089.17.wav
p1517
aVC25_08_20797.77_20799.04.wav
p1518
aVC25_08_23695.88_23697.08.wav
p1519
aV15_16_34239.25_34240.05.wav
p1520
aVC25_08_4502.37_4503.06.wav
p1521
aV04_08_29275.38_29276.2.wav
p1522
aVc15_16_4209.84_4210.44.wav
p1523
aVc22_15_1311170.0_1315580.0.wav
p1524
aVc22_15_57144380.0_57144980.0.wav
p1525
aVc22_15_4115600.0_4116440.0.wav
p1526
aVc22_15_57090700.0_57094050.0.wav
p1527
aV04_08_44080.75_44084.8.wav
p1528
aV04_08_31879.25_31880.27.wav
p1529
aVC25_08_6444.24_6444.9.wav
p1530
aVC25_08_23994.74_23995.74.wav
p1531
aV23_15_40885.94_40886.8.wav
p1532
aV04_08_19533.02_19534.13.wav
p1533
aVc22_15_50530220.0_50530820.0.wav
p1534
aV23_15_47242.59_47243.59.wav
p1535
aVC25_08_7206.17_7206.87.wav
p1536
aV04_08_19914.55_19915.62.wav
p1537
aV04_08_33905.98_33906.64.wav
p1538
aV15_16_33807.4_33808.01.wav
p1539
aVc15_16_26799.41_26800.01.wav
p1540
aVc22_15_47416930.0_47417670.0.wav
p1541
aVc15_16_25720.68_25721.97.wav
p1542
aV23_15_36796.23_36798.21.wav
p1543
aV23_15_34967.47_34968.27.wav
p1544
aVc15_16_10428.02_10428.68.wav
p1545
aVc22_15_45182460.0_45183750.0.wav
p1546
aV04_08_18236.72_18237.32.wav
p1547
aVc22_15_55038040.0_55038640.0.wav
p1548
aVc15_16_26943.68_26944.81.wav
p1549
aVc15_16_19602.88_19603.81.wav
p1550
aV04_08_29177.76_29178.37.wav
p1551
aVc15_16_20226.09_20226.71.wav
p1552
aVc15_16_6401.08_6402.01.wav
p1553
aV04_08_18401.53_18402.54.wav
p1554
aV04_08_35739.87_35740.47.wav
p1555
aV23_15_49003.16_49003.99.wav
p1556
aV15_16_32156.59_32157.92.wav
p1557
aV23_15_2838.72_2839.32.wav
p1558
aV04_08_46478.41_46479.37.wav
p1559
aV04_08_28337.32_28338.97.wav
p1560
aV15_16_35386.25_35387.19.wav
p1561
aV23_15_12449.28_12449.88.wav
p1562
aVC25_08_511.62_512.61.wav
p1563
aV15_16_46806.26_46806.92.wav
p1564
aV04_08_34689.38_34690.64.wav
p1565
aV04_08_13548.64_13549.39.wav
p1566
aVc22_15_51918770.0_51919380.0.wav
p1567
aVc15_16_33524.57_33527.5.wav
p1568
aV23_15_27305.25_27306.09.wav
p1569
aVC25_08_23792.18_23793.22.wav
p1570
aVc22_15_53774240.0_53776010.0.wav
p1571
aV23_15_45140.44_45141.04.wav
p1572
aV23_15_40615.94_40617.48.wav
p1573
aV15_16_42495.57_42496.24.wav
p1574
aVc22_15_56306430.0_56307430.0.wav
p1575
aV04_08_28631.89_28634.45.wav
p1576
aV15_16_19167.22_19168.1.wav
p1577
aV04_08_26114.77_26115.37.wav
p1578
aV23_15_12189.07_12190.52.wav
p1579
aVc15_16_14395.24_14395.84.wav
p1580
aV15_16_42499.66_42500.52.wav
p1581
aV15_16_31337.32_31338.26.wav
p1582
aV04_08_27585.41_27586.01.wav
p1583
aVc15_16_6789.15_6790.19.wav
p1584
aV04_08_39992.4_39993.38.wav
p1585
aVc22_15_50041370.0_50042740.0.wav
p1586
aVC25_08_1139.45_1143.05.wav
p1587
aV15_16_10187.87_10188.66.wav
p1588
aVc15_16_13371.91_13372.51.wav
p1589
aV23_15_37752.62_37753.22.wav
p1590
aVC25_08_19568.02_19568.62.wav
p1591
aVc22_15_53381910.0_53383710.0.wav
p1592
aVc22_15_53442830.0_53443450.0.wav
p1593
aVc22_15_47777420.0_47779300.0.wav
p1594
aVc22_15_56458940.0_56459640.0.wav
p1595
aVc22_15_32899210.0_32899910.0.wav
p1596
aVc15_16_31862.72_31863.32.wav
p1597
aV15_16_33518.85_33519.85.wav
p1598
aV15_16_47345.99_47346.59.wav
p1599
aVc22_15_50015490.0_50016090.0.wav
p1600
aVc15_16_7180.75_7181.35.wav
p1601
aV04_08_438.78_439.38.wav
p1602
aV23_15_44455.94_44457.6.wav
p1603
aVc22_15_49000390.0_49001440.0.wav
p1604
aVc22_15_50779540.0_50781780.0.wav
p1605
aV04_08_26322.63_26323.26.wav
p1606
aV15_16_8849.66_8850.72.wav
p1607
aVc22_15_49141550.0_49143320.0.wav
p1608
aVc15_16_21696.45_21699.16.wav
p1609
aV04_08_45022.92_45023.58.wav
p1610
aVc15_16_9416.0_9416.78.wav
p1611
aV15_16_11027.59_11028.22.wav
p1612
aV15_16_41445.11_41447.39.wav
p1613
aVc22_15_184120.0_184970.0.wav
p1614
aV15_16_46648.56_46649.16.wav
p1615
aV04_08_1802.43_1803.21.wav
p1616
aV04_08_34055.15_34055.88.wav
p1617
aV23_15_39014.72_39015.85.wav
p1618
aVC25_08_1015.51_1018.37.wav
p1619
aVc15_16_33851.62_33852.24.wav
p1620
aV23_15_3244.93_3245.91.wav
p1621
aV15_16_40964.66_40965.73.wav
p1622
aV15_16_18639.16_18640.77.wav
p1623
aVC25_08_8441.25_8442.64.wav
p1624
aV15_16_37277.83_37278.65.wav
p1625
aVC25_08_48640.39_48641.26.wav
p1626
aV23_15_26597.4_26598.01.wav
p1627
aVc15_16_35002.86_35003.63.wav
p1628
aV15_16_37618.82_37619.56.wav
p1629
aV23_15_30310.17_30310.85.wav
p1630
aV23_15_21670.99_21673.46.wav
p1631
aVc15_16_26127.46_26128.06.wav
p1632
aVc22_15_53984250.0_53984970.0.wav
p1633
aVc22_15_55627350.0_55628840.0.wav
p1634
aVc15_16_24182.04_24182.86.wav
p1635
aV23_15_46225.31_46225.91.wav
p1636
aVC25_08_27343.6_27344.26.wav
p1637
aVc22_15_52534880.0_52535570.0.wav
p1638
aV23_15_2625.69_2627.93.wav
p1639
aVc15_16_21980.23_21980.93.wav
p1640
aVc15_16_26780.36_26781.24.wav
p1641
aV15_16_41368.27_41369.27.wav
p1642
aV15_16_8879.12_8880.71.wav
p1643
aVc22_15_51177140.0_51177740.0.wav
p1644
aV23_15_41127.16_41127.8.wav
p1645
aV15_16_32541.22_32542.05.wav
p1646
aVc15_16_17369.03_17369.85.wav
p1647
aV15_16_34535.65_34536.52.wav
p1648
aV15_16_4237.68_4239.41.wav
p1649
aVc22_15_3626550.0_3627150.0.wav
p1650
aV15_16_32178.67_32179.41.wav
p1651
aVc22_15_51021660.0_51022740.0.wav
p1652
aV04_08_46717.48_46718.3.wav
p1653
aV04_08_13709.63_13710.69.wav
p1654
aV04_08_13909.21_13910.89.wav
p1655
aVc22_15_45297450.0_45298050.0.wav
p1656
aV15_16_5318.58_5319.32.wav
p1657
aVC25_08_23864.63_23865.23.wav
p1658
aVc15_16_5217.77_5218.57.wav
p1659
aV04_08_46933.77_46935.11.wav
p1660
aVC25_08_39816.81_39817.41.wav
p1661
aVc15_16_11909.96_11911.64.wav
p1662
aVc15_16_34456.49_34457.19.wav
p1663
aV04_08_3415.81_3419.87.wav
p1664
aV23_15_10743.99_10745.65.wav
p1665
aV15_16_32792.08_32793.14.wav
p1666
aV23_15_39437.35_39440.04.wav
p1667
aV15_16_41339.03_41340.95.wav
p1668
aV15_16_19207.94_19208.6.wav
p1669
aV23_15_20875.9_20876.96.wav
p1670
aV15_16_13460.14_13460.74.wav
p1671
aV15_16_31512.5_31513.13.wav
p1672
aV04_08_16463.66_16464.26.wav
p1673
aVc22_15_46076340.0_46076940.0.wav
p1674
aV15_16_11773.85_11775.02.wav
p1675
aV23_15_3705.83_3706.51.wav
p1676
aV15_16_45939.6_45940.24.wav
p1677
aV04_08_28831.77_28832.51.wav
p1678
aVc15_16_44573.07_44573.82.wav
p1679
aV15_16_42880.43_42881.34.wav
p1680
aVC25_08_3975.29_3975.89.wav
p1681
aVc22_15_1105070.0_1108310.0.wav
p1682
aV04_08_25883.18_25883.78.wav
p1683
aV15_16_9638.32_9639.63.wav
p1684
aVc15_16_11840.11_11840.71.wav
p1685
aVc15_16_30451.87_30452.47.wav
p1686
aVC25_08_27291.3_27291.9.wav
p1687
aV23_15_30841.44_30842.04.wav
p1688
aVc22_15_52652700.0_52653300.0.wav
p1689
aV15_16_2108.11_2108.86.wav
p1690
aV23_15_39353.47_39354.07.wav
p1691
aV23_15_4746.74_4747.37.wav
p1692
aV23_15_25483.09_25485.23.wav
p1693
aV23_15_10762.59_10763.61.wav
p1694
aVc15_16_8946.75_8947.35.wav
p1695
aV04_08_30745.86_30747.39.wav
p1696
aVc22_15_56058750.0_56060190.0.wav
p1697
aV23_15_25709.94_25711.09.wav
p1698
aVc22_15_50021840.0_50024180.0.wav
p1699
aV15_16_36771.32_36772.99.wav
p1700
aVc15_16_19860.91_19864.3.wav
p1701
aVC25_08_23819.48_23821.13.wav
p1702
aV15_16_17227.53_17228.54.wav
p1703
aV15_16_44339.52_44340.12.wav
p1704
aVc22_15_50969850.0_50970450.0.wav
p1705
aV23_15_38941.78_38942.84.wav
p1706
aV04_08_35035.84_35037.84.wav
p1707
aVC25_08_4285.87_4286.49.wav
p1708
aV23_15_33307.68_33308.68.wav
p1709
aVC25_08_14409.75_14410.35.wav
p1710
aV04_08_25371.5_25372.49.wav
p1711
aV15_16_8232.61_8233.3.wav
p1712
aV23_15_47876.71_47877.72.wav
p1713
aV23_15_34142.07_34142.85.wav
p1714
aVc15_16_5609.32_5610.24.wav
p1715
aV15_16_38272.78_38273.42.wav
p1716
aV04_08_47688.3_47689.01.wav
p1717
aV04_08_13754.03_13754.86.wav
p1718
aVC25_08_9310.77_9311.7.wav
p1719
aV04_08_26296.43_26298.43.wav
p1720
aVC25_08_22505.42_22506.44.wav
p1721
aV15_16_45107.43_45108.31.wav
p1722
aVc15_16_13903.23_13904.23.wav
p1723
aVC25_08_30049.88_30050.58.wav
p1724
aV15_16_37336.88_37337.56.wav
p1725
aV15_16_32732.79_32733.79.wav
p1726
aVC25_08_9432.95_9433.57.wav
p1727
aV15_16_45908.66_45909.26.wav
p1728
aV23_15_15228.21_15229.65.wav
p1729
aV04_08_28329.78_28330.38.wav
p1730
aVc15_16_22463.51_22464.4.wav
p1731
aVc22_15_55341450.0_55342050.0.wav
p1732
aV04_08_42832.51_42838.04.wav
p1733
aVc15_16_33726.38_33727.65.wav
p1734
aVc15_16_5613.36_5613.96.wav
p1735
aV15_16_42216.39_42217.93.wav
p1736
aV15_16_37428.66_37430.0.wav
p1737
aV23_15_23946.19_23949.59.wav
p1738
aVc22_15_1007970.0_1009790.0.wav
p1739
aVc22_15_2719210.0_2720280.0.wav
p1740
aVC25_08_14884.06_14884.8.wav
p1741
aVC25_08_57158.79_57160.11.wav
p1742
aVc22_15_46068870.0_46069510.0.wav
p1743
aV15_16_45968.01_45969.56.wav
p1744
aVC25_08_44340.01_44342.38.wav
p1745
aVC25_08_29523.13_29523.73.wav
p1746
aV04_08_30534.69_30537.12.wav
p1747
aVc22_15_57317510.0_57318130.0.wav
p1748
aVc22_15_53966690.0_53967430.0.wav
p1749
aV23_15_25431.4_25432.0.wav
p1750
aVc15_16_24690.41_24691.42.wav
p1751
aVc15_16_33765.49_33767.24.wav
p1752
aV15_16_8976.58_8978.11.wav
p1753
aVC25_08_15742.18_15743.58.wav
p1754
aVc15_16_14793.23_14794.39.wav
p1755
aV04_08_32600.6_32601.81.wav
p1756
aV15_16_36199.66_36200.26.wav
p1757
aV23_15_35911.32_35912.79.wav
p1758
aV15_16_9192.08_9194.39.wav
p1759
aVC25_08_39321.5_39322.1.wav
p1760
aVC25_08_8096.42_8097.02.wav
p1761
aVc22_15_55714860.0_55716070.0.wav
p1762
aVc22_15_53284100.0_53290000.0.wav
p1763
aVc22_15_48325680.0_48326300.0.wav
p1764
aV15_16_39649.24_39650.42.wav
p1765
aVC25_08_26816.21_26816.82.wav
p1766
aVC25_08_44833.33_44834.19.wav
p1767
aVc15_16_11816.52_11817.4.wav
p1768
aVC25_08_25300.27_25300.88.wav
p1769
aV23_15_13006.0_13007.24.wav
p1770
aVC25_08_26871.15_26871.89.wav
p1771
aVC25_08_25196.57_25197.77.wav
p1772
aV23_15_56543.37_56544.01.wav
p1773
aV04_08_28856.61_28857.42.wav
p1774
aVc22_15_49187610.0_49188450.0.wav
p1775
aVC25_08_15514.09_15514.72.wav
p1776
aV15_16_4940.1_4940.89.wav
p1777
aV23_15_35737.5_35738.21.wav
p1778
aVc15_16_26531.27_26531.87.wav
p1779
aV23_15_21825.3_21825.91.wav
p1780
aVc22_15_53237190.0_53237790.0.wav
p1781
aVC25_08_44773.86_44780.48.wav
p1782
aV23_15_14111.86_14112.63.wav
p1783
aV04_08_32231.92_32233.56.wav
p1784
aV15_16_38452.52_38453.39.wav
p1785
aVc15_16_20578.75_20579.37.wav
p1786
aVC25_08_29000.83_29001.84.wav
p1787
aV04_08_34881.25_34882.71.wav
p1788
aVc15_16_22177.33_22178.1.wav
p1789
aVC25_08_19154.25_19155.68.wav
p1790
aVc15_16_6847.18_6847.78.wav
p1791
aVc15_16_25666.36_25666.96.wav
p1792
aVC25_08_17702.11_17702.71.wav
p1793
aV15_16_39787.68_39789.19.wav
p1794
aV04_08_39990.69_39991.4.wav
p1795
aVc22_15_45846430.0_45847730.0.wav
p1796
aVC25_08_21949.91_21950.97.wav
p1797
aV04_08_46870.85_46871.51.wav
p1798
aVc15_16_10998.38_10999.38.wav
p1799
aVc15_16_20530.7_20532.01.wav
p1800
aVc15_16_46044.98_46045.58.wav
p1801
a.