(lp1
S'c15_16_24733.67_24734.83.wav'
p2
aS'C25_08_19154.25_19155.68.wav'
p3
aS'04_08_2497.14_2498.84.wav'
p4
aS'C25_08_29804.07_29806.84.wav'
p5
aS'C25_08_15808.18_15808.78.wav'
p6
aS'23_15_1408.71_1410.52.wav'
p7
aS'04_08_46677.64_46679.25.wav'
p8
aS'c15_16_23051.4_23052.13.wav'
p9
aS'23_15_38112.04_38113.29.wav'
p10
aS'15_16_44108.13_44108.73.wav'
p11
aS'15_16_1971.41_1972.01.wav'
p12
aS'23_15_46059.61_46060.39.wav'
p13
aS'23_15_9225.06_9227.45.wav'
p14
aS'04_08_8301.63_8303.81.wav'
p15
aS'c22_15_50771090.0_50771690.0.wav'
p16
aS'c15_16_20595.86_20596.68.wav'
p17
aS'C25_08_19170.84_19171.44.wav'
p18
aS'c22_15_50517370.0_50518530.0.wav'
p19
aS'c22_15_47416930.0_47417670.0.wav'
p20
aS'15_16_37336.88_37337.56.wav'
p21
aS'15_16_42060.03_42061.79.wav'
p22
aS'23_15_10105.99_10106.59.wav'
p23
aS'c15_16_14263.32_14263.92.wav'
p24
aS'23_15_56220.44_56221.66.wav'
p25
aS'c22_15_51918770.0_51919380.0.wav'
p26
aS'23_15_56429.48_56434.67.wav'
p27
aS'23_15_56408.08_56408.77.wav'
p28
aS'04_08_13709.63_13710.69.wav'
p29
aS'c15_16_27578.2_27579.39.wav'
p30
aS'c15_16_22181.21_22181.81.wav'
p31
aS'C25_08_3503.8_3505.93.wav'
p32
aS'04_08_44308.67_44310.11.wav'
p33
aS'C25_08_16495.75_16496.35.wav'
p34
aS'c15_16_21696.45_21699.16.wav'
p35
aS'C25_08_27593.37_27594.39.wav'
p36
aS'23_15_48030.53_48031.54.wav'
p37
aS'c15_16_6847.18_6847.78.wav'
p38
aS'23_15_14161.17_14162.95.wav'
p39
aS'04_08_47672.37_47673.72.wav'
p40
aS'04_08_46478.41_46479.37.wav'
p41
aS'15_16_12798.29_12799.55.wav'
p42
aS'c22_15_50004360.0_50005140.0.wav'
p43
aS'C25_08_33125.48_33126.48.wav'
p44
aS'c22_15_54020680.0_54021280.0.wav'
p45
aS'c15_16_10871.85_10872.45.wav'
p46
aS'15_16_8904.41_8905.66.wav'
p47
aS'04_08_28659.9_28661.14.wav'
p48
aS'15_16_114.27_115.05.wav'
p49
aS'04_08_25896.36_25896.96.wav'
p50
aS'23_15_38057.81_38058.41.wav'
p51
aS'04_08_33758.34_33760.64.wav'
p52
aS'15_16_37430.0_37430.61.wav'
p53
aS'23_15_41123.39_41124.39.wav'
p54
aS'04_08_28329.78_28330.38.wav'
p55
aS'c15_16_48355.0_48355.93.wav'
p56
aS'23_15_25094.57_25095.17.wav'
p57
aS'23_15_2681.88_2682.89.wav'
p58
aS'15_16_10210.64_10211.95.wav'
p59
aS'23_15_20875.9_20876.96.wav'
p60
aS'c22_15_57535890.0_57537500.0.wav'
p61
aS'c22_15_52281700.0_52282300.0.wav'
p62
aS'c22_15_1368080.0_1368840.0.wav'
p63
aS'15_16_44443.45_44444.25.wav'
p64
aS'04_08_3423.75_3424.58.wav'
p65
aS'04_08_31860.78_31862.22.wav'
p66
aS'c22_15_46183500.0_46184450.0.wav'
p67
aS'04_08_30586.0_30587.11.wav'
p68
aS'15_16_38452.52_38453.39.wav'
p69
aS'c22_15_53284100.0_53290000.0.wav'
p70
aS'c15_16_20712.2_20713.28.wav'
p71
aS'15_16_16808.65_16809.25.wav'
p72
aS'15_16_59.26_59.86.wav'
p73
aS'04_08_471.3_472.4.wav'
p74
aS'23_15_1261.18_1261.78.wav'
p75
aS'15_16_44100.88_44101.48.wav'
p76
aS'c15_16_21874.85_21876.92.wav'
p77
aS'15_16_44907.98_44908.71.wav'
p78
aS'23_15_47664.76_47665.88.wav'
p79
aS'c15_16_20552.7_20553.3.wav'
p80
aS'23_15_13006.0_13007.24.wav'
p81
aS'15_16_37159.92_37160.6.wav'
p82
aS'c15_16_5606.21_5606.81.wav'
p83
aS'c15_16_35679.77_35681.5.wav'
p84
aS'15_16_39614.26_39615.02.wav'
p85
aS'c22_15_48271170.0_48272210.0.wav'
p86
aS'15_16_34565.19_34566.37.wav'
p87
aS'c15_16_21805.13_21805.73.wav'
p88
aS'c15_16_24199.56_24201.6.wav'
p89
aS'C25_08_28941.91_28944.76.wav'
p90
aS'23_15_21592.03_21593.07.wav'
p91
aS'c22_15_48015650.0_48016500.0.wav'
p92
aS'15_16_31894.57_31899.78.wav'
p93
aS'15_16_46706.0_46706.6.wav'
p94
aS'04_08_33905.98_33906.64.wav'
p95
aS'C25_08_39329.32_39329.93.wav'
p96
aS'C25_08_22247.94_22249.44.wav'
p97
aS'C25_08_19568.02_19568.62.wav'
p98
aS'C25_08_44365.64_44367.49.wav'
p99
aS'23_15_3626.03_3628.56.wav'
p100
aS'23_15_35737.5_35738.21.wav'
p101
aS'C25_08_31205.58_31206.18.wav'
p102
aS'15_16_44339.52_44340.12.wav'
p103
aS'15_16_9645.24_9646.24.wav'
p104
aS'15_16_9850.85_9851.85.wav'
p105
aS'C25_08_566.55_567.2.wav'
p106
aS'c22_15_53227420.0_53228970.0.wav'
p107
aS'c15_16_36567.25_36567.95.wav'
p108
aS'c22_15_53000150.0_53000750.0.wav'
p109
aS'04_08_1569.85_1570.45.wav'
p110
aS'c22_15_1007970.0_1009790.0.wav'
p111
aS'23_15_45527.35_45528.58.wav'
p112
aS'C25_08_23645.27_23645.96.wav'
p113
aS'C25_08_21951.78_21952.38.wav'
p114
aS'c15_16_9166.36_9168.34.wav'
p115
aS'c22_15_49907130.0_49907730.0.wav'
p116
aS'04_08_25054.65_25055.5.wav'
p117
aS'15_16_18587.88_18589.6.wav'
p118
aS'04_08_19503.74_19505.56.wav'
p119
aS'23_15_4460.71_4463.27.wav'
p120
aS'c22_15_1243800.0_1244400.0.wav'
p121
aS'23_15_26303.74_26304.34.wav'
p122
aS'04_08_44214.3_44214.9.wav'
p123
aS'23_15_45895.54_45896.37.wav'
p124
aS'c22_15_51752190.0_51752820.0.wav'
p125
aS'C25_08_17702.11_17702.71.wav'
p126
aS'C25_08_17283.85_17285.37.wav'
p127
aS'C25_08_7254.72_7255.52.wav'
p128
aS'c15_16_2909.68_2910.35.wav'
p129
aS'23_15_2934.7_2935.54.wav'
p130
aS'c22_15_55970460.0_55971480.0.wav'
p131
aS'c15_16_6789.15_6790.19.wav'
p132
aS'c15_16_25200.09_25200.96.wav'
p133
aS'c22_15_48840850.0_48841940.0.wav'
p134
aS'23_15_17666.22_17667.02.wav'
p135
aS'c15_16_34012.91_34013.55.wav'
p136
aS'04_08_28912.03_28912.63.wav'
p137
aS'c15_16_34184.64_34185.41.wav'
p138
aS'04_08_44028.83_44029.58.wav'
p139
aS'C25_08_49578.13_49578.73.wav'
p140
aS'c15_16_5878.46_5880.62.wav'
p141
aS'c22_15_53523440.0_53524740.0.wav'
p142
aS'c22_15_50637540.0_50638560.0.wav'
p143
aS'c22_15_57086560.0_57088900.0.wav'
p144
aS'C25_08_24742.31_24743.11.wav'
p145
aS'c22_15_53308350.0_53312230.0.wav'
p146
aS'04_08_25449.39_25451.19.wav'
p147
aS'04_08_35185.64_35186.24.wav'
p148
aS'c15_16_3284.14_3284.75.wav'
p149
aS'15_16_4752.49_4754.18.wav'
p150
aS'C25_08_21259.19_21259.79.wav'
p151
aS'15_16_43927.86_43928.79.wav'
p152
aS'C25_08_23723.55_23724.39.wav'
p153
aS'C25_08_16598.68_16600.83.wav'
p154
aS'04_08_35834.43_35835.03.wav'
p155
aS'04_08_48047.37_48047.97.wav'
p156
aS'c15_16_26315.87_26316.71.wav'
p157
aS'15_16_41415.7_41416.51.wav'
p158
aS'c15_16_22236.48_22237.2.wav'
p159
aS'c22_15_4115600.0_4116440.0.wav'
p160
aS'23_15_56189.93_56192.45.wav'
p161
aS'c15_16_33726.38_33727.65.wav'
p162
aS'c15_16_10848.54_10849.83.wav'
p163
aS'c15_16_3602.02_3603.82.wav'
p164
aS'23_15_46584.52_46585.33.wav'
p165
aS'c22_15_56454980.0_56457220.0.wav'
p166
aS'c15_16_30900.4_30901.0.wav'
p167
aS'c15_16_11485.88_11486.68.wav'
p168
aS'04_08_43422.37_43422.97.wav'
p169
aS'23_15_16543.76_16545.87.wav'
p170
aS'04_08_46523.41_46524.35.wav'
p171
aS'15_16_40389.08_40390.03.wav'
p172
aS'15_16_31519.29_31519.89.wav'
p173
aS'15_16_40964.66_40965.73.wav'
p174
aS'c15_16_35002.86_35003.63.wav'
p175
aS'c15_16_1821.52_1822.18.wav'
p176
aS'23_15_1496.66_1497.26.wav'
p177
aS'04_08_1802.43_1803.21.wav'
p178
aS'c22_15_51155790.0_51157310.0.wav'
p179
aS'C25_08_20874.23_20875.75.wav'
p180
aS'C25_08_49331.75_49332.35.wav'
p181
aS'23_15_20289.61_20293.95.wav'
p182
aS'04_08_5227.44_5228.05.wav'
p183
aS'15_16_40190.74_40191.4.wav'
p184
aS'c22_15_48767170.0_48767770.0.wav'
p185
aS'23_15_2492.98_2493.72.wav'
p186
aS'15_16_10044.22_10045.23.wav'
p187
aS'04_08_44660.8_44661.65.wav'
p188
aS'c15_16_26658.0_26659.04.wav'
p189
aS'C25_08_28287.52_28288.12.wav'
p190
aS'c22_15_4083090.0_4083910.0.wav'
p191
aS'04_08_28319.5_28323.63.wav'
p192
aS'c22_15_45297450.0_45298050.0.wav'
p193
aS'23_15_10746.48_10748.35.wav'
p194
aS'C25_08_29410.44_29411.92.wav'
p195
aS'15_16_15972.96_15973.57.wav'
p196
aS'c22_15_57394080.0_57395340.0.wav'
p197
aS'23_15_21825.3_21825.91.wav'
p198
aS'15_16_4980.48_4981.08.wav'
p199
aS'C25_08_21506.89_21507.49.wav'
p200
aS'23_15_4679.86_4681.33.wav'
p201
aS'04_08_34037.32_34038.0.wav'
p202
aS'15_16_2023.33_2023.93.wav'
p203
aS'04_08_34055.15_34055.88.wav'
p204
aS'c22_15_47237740.0_47238630.0.wav'
p205
aS'c22_15_1355090.0_1356010.0.wav'
p206
aS'15_16_37068.09_37068.69.wav'
p207
aS'C25_08_27343.6_27344.26.wav'
p208
aS'23_15_56198.95_56201.31.wav'
p209
aS'c15_16_19680.92_19681.97.wav'
p210
aS'C25_08_4512.23_4512.86.wav'
p211
aS'c22_15_51446770.0_51447400.0.wav'
p212
aS'15_16_42052.56_42053.16.wav'
p213
aS'C25_08_29978.92_29979.53.wav'
p214
aS'23_15_18438.82_18441.82.wav'
p215
aS'c22_15_726080.0_726710.0.wav'
p216
aS'c22_15_52977030.0_52977750.0.wav'
p217
aS'23_15_30175.58_30178.49.wav'
p218
aS'c22_15_48259340.0_48261750.0.wav'
p219
aS'15_16_4932.12_4933.12.wav'
p220
aS'C25_08_39235.23_39236.77.wav'
p221
aS'23_15_27882.04_27882.96.wav'
p222
aS'C25_08_16611.58_16613.04.wav'
p223
aS'c22_15_56879760.0_56880640.0.wav'
p224
aS'15_16_43076.35_43076.95.wav'
p225
aS'c22_15_49912120.0_49913190.0.wav'
p226
aS'C25_08_27189.29_27189.9.wav'
p227
aS'04_08_28631.89_28634.45.wav'
p228
aS'23_15_30841.44_30842.04.wav'
p229
aS'15_16_30006.76_30009.5.wav'
p230
aS'15_16_38417.67_38418.29.wav'
p231
aS'15_16_42495.57_42496.24.wav'
p232
aS'C25_08_24712.56_24713.16.wav'
p233
aS'c15_16_6018.93_6019.6.wav'
p234
aS'04_08_40966.72_40969.26.wav'
p235
aS'c15_16_9112.16_9112.84.wav'
p236
aS'23_15_46790.64_46791.24.wav'
p237
aS'15_16_44153.16_44153.87.wav'
p238
aS'c15_16_4723.5_4724.1.wav'
p239
aS'C25_08_39248.38_39249.31.wav'
p240
aS'C25_08_528.27_528.87.wav'
p241
aS'23_15_22454.95_22457.49.wav'
p242
aS'c22_15_53442830.0_53443450.0.wav'
p243
aS'c15_16_17640.59_17641.39.wav'
p244
aS'04_08_25883.18_25883.78.wav'
p245
aS'C25_08_19130.55_19131.16.wav'
p246
aS'23_15_48371.48_48372.88.wav'
p247
aS'04_08_29500.29_29501.15.wav'
p248
aS'15_16_39194.62_39195.68.wav'
p249
aS'c15_16_11669.31_11669.91.wav'
p250
aS'23_15_41152.77_41154.23.wav'
p251
aS'c22_15_50045750.0_50046460.0.wav'
p252
aS'C25_08_33084.04_33085.56.wav'
p253
aS'c22_15_40020.0_40620.0.wav'
p254
aS'c15_16_33731.16_33733.63.wav'
p255
aS'04_08_47964.09_47965.15.wav'
p256
aS'c22_15_720190.0_721140.0.wav'
p257
aS'c15_16_35837.81_35838.41.wav'
p258
aS'c22_15_48325680.0_48326300.0.wav'
p259
aS'15_16_41137.03_41138.88.wav'
p260
aS'C25_08_19466.38_19467.1.wav'
p261
aS'23_15_27672.53_27673.41.wav'
p262
aS'23_15_9555.3_9555.94.wav'
p263
aS'15_16_19168.1_19168.91.wav'
p264
aS'04_08_47844.42_47845.02.wav'
p265
aS'15_16_40660.21_40661.02.wav'
p266
aS'15_16_43699.34_43700.34.wav'
p267
aS'23_15_18498.28_18499.32.wav'
p268
aS'c15_16_15332.01_15332.61.wav'
p269
aS'C25_08_25300.27_25300.88.wav'
p270
aS'04_08_43533.77_43534.37.wav'
p271
aS'c15_16_26256.12_26257.01.wav'
p272
aS'c15_16_24731.62_24732.24.wav'
p273
aS'c15_16_14936.89_14937.82.wav'
p274
aS'15_16_44020.53_44021.3.wav'
p275
aS'c15_16_33706.54_33707.96.wav'
p276
aS'c15_16_24690.41_24691.42.wav'
p277
aS'15_16_44057.42_44058.03.wav'
p278
aS'23_15_12737.02_12738.35.wav'
p279
aS'23_15_49035.72_49038.33.wav'
p280
aS'c15_16_5629.99_5630.61.wav'
p281
aS'23_15_40428.41_40429.22.wav'
p282
aS'04_08_47438.27_47439.7.wav'
p283
aS'04_08_25225.67_25226.79.wav'
p284
aS'04_08_46327.54_46330.24.wav'
p285
aS'c22_15_48831680.0_48833300.0.wav'
p286
aS'c22_15_50459720.0_50460320.0.wav'
p287
aS'15_16_33761.5_33762.1.wav'
p288
aS'23_15_129.67_131.1.wav'
p289
aS'23_15_20858.81_20861.05.wav'
p290
aS'15_16_5635.74_5636.38.wav'
p291
aS'c22_15_4263710.0_4264310.0.wav'
p292
aS'23_15_56395.41_56403.65.wav'
p293
aS'c15_16_32208.03_32210.08.wav'
p294
aS'23_15_38878.59_38879.52.wav'
p295
aS'15_16_4237.68_4239.41.wav'
p296
aS'c22_15_47117550.0_47118150.0.wav'
p297
aS'c22_15_51487460.0_51488060.0.wav'
p298
aS'C25_08_21019.26_21020.1.wav'
p299
aS'23_15_29566.58_29567.25.wav'
p300
aS'c15_16_31122.62_31123.51.wav'
p301
aS'C25_08_22539.78_22540.38.wav'
p302
aS'23_15_29958.4_29959.82.wav'
p303
aS'C25_08_49479.49_49480.54.wav'
p304
aS'15_16_15808.19_15808.79.wav'
p305
aS'C25_08_29422.21_29423.59.wav'
p306
aS'15_16_43787.27_43788.07.wav'
p307
aS'04_08_33774.45_33775.39.wav'
p308
aS'23_15_30144.24_30146.96.wav'
p309
aS'04_08_26114.77_26115.37.wav'
p310
aS'C25_08_5409.91_5410.92.wav'
p311
aS'c22_15_56986540.0_56987780.0.wav'
p312
aS'C25_08_23533.97_23534.57.wav'
p313
aS'c22_15_45219350.0_45220100.0.wav'
p314
aS'04_08_7918.54_7919.46.wav'
p315
aS'04_08_28288.13_28289.59.wav'
p316
aS'c22_15_56922760.0_56924060.0.wav'
p317
aS'c22_15_2424780.0_2425690.0.wav'
p318
aS'04_08_45824.87_45825.96.wav'
p319
aS'04_08_25568.04_25568.64.wav'
p320
aS'15_16_43191.21_43191.86.wav'
p321
aS'15_16_45939.6_45940.24.wav'
p322
aS'15_16_217.95_219.26.wav'
p323
aS'23_15_49003.16_49003.99.wav'
p324
aS'c15_16_26394.36_26395.42.wav'
p325
aS'04_08_34912.64_34913.26.wav'
p326
aS'23_15_34967.47_34968.27.wav'
p327
aS'c22_15_5331260.0_5331910.0.wav'
p328
aS'15_16_8641.34_8642.91.wav'
p329
aS'04_08_1600.99_1602.07.wav'
p330
aS'23_15_33833.01_33833.79.wav'
p331
aS'23_15_39344.84_39348.24.wav'
p332
aS'c22_15_57019800.0_57020420.0.wav'
p333
aS'c15_16_3823.79_3824.4.wav'
p334
aS'23_15_12987.53_12988.89.wav'
p335
aS'C25_08_18541.25_18542.11.wav'
p336
aS'04_08_43479.17_43479.77.wav'
p337
aS'c22_15_50183720.0_50184320.0.wav'
p338
aS'C25_08_20049.46_20051.1.wav'
p339
aS'C25_08_27302.23_27305.42.wav'
p340
aS'15_16_44994.55_44995.32.wav'
p341
aS'04_08_34538.24_34539.95.wav'
p342
aS'23_15_48451.28_48451.92.wav'
p343
aS'23_15_19957.74_19959.05.wav'
p344
aS'c15_16_11816.52_11817.4.wav'
p345
aS'23_15_8104.84_8105.64.wav'
p346
aS'04_08_45380.83_45381.5.wav'
p347
aS'c22_15_1321820.0_1323700.0.wav'
p348
aS'15_16_44818.96_44820.0.wav'
p349
aS'04_08_34209.5_34210.9.wav'
p350
aS'23_15_46720.3_46720.99.wav'
p351
aS'c15_16_11840.11_11840.71.wav'
p352
aS'C25_08_584.57_585.29.wav'
p353
aS'23_15_5449.19_5449.85.wav'
p354
aS'c15_16_26792.33_26793.21.wav'
p355
aS'15_16_44319.0_44319.74.wav'
p356
aS'23_15_17919.98_17921.9.wav'
p357
aS'15_16_42649.03_42649.63.wav'
p358
aS'04_08_44998.53_44999.41.wav'
p359
aS'23_15_18279.47_18281.16.wav'
p360
aS'C25_08_7097.45_7098.15.wav'
p361
aS'c15_16_26317.51_26320.61.wav'
p362
aS'23_15_4018.78_4019.38.wav'
p363
aS'04_08_34065.95_34067.35.wav'
p364
aS'23_15_48922.03_48922.63.wav'
p365
aS'15_16_11952.66_11953.89.wav'
p366
aS'c15_16_44386.53_44387.2.wav'
p367
aS'C25_08_23792.18_23793.22.wav'
p368
aS'C25_08_56896.82_56897.8.wav'
p369
aS'c22_15_32899210.0_32899910.0.wav'
p370
aS'04_08_8467.96_8468.56.wav'
p371
aS'15_16_35386.25_35387.19.wav'
p372
aS'c22_15_56458940.0_56459640.0.wav'
p373
aS'04_08_9417.59_9418.19.wav'
p374
aS'c15_16_23266.07_23266.82.wav'
p375
aS'c15_16_19511.04_19512.05.wav'
p376
aS'c15_16_850.75_852.19.wav'
p377
aS'15_16_39680.37_39680.97.wav'
p378
aS'C25_08_25196.57_25197.77.wav'
p379
aS'04_08_438.78_439.38.wav'
p380
aS'c22_15_50027460.0_50028250.0.wav'
p381
aS'c22_15_3453610.0_3455960.0.wav'
p382
aS'23_15_56446.52_56449.9.wav'
p383
aS'23_15_14111.86_14112.63.wav'
p384
aS'c15_16_34813.45_34814.26.wav'
p385
aS'23_15_46975.64_46976.88.wav'
p386
aS'23_15_35911.32_35912.79.wav'
p387
aS'04_08_29605.32_29605.92.wav'
p388
aS'15_16_42609.92_42610.57.wav'
p389
aS'15_16_37618.82_37619.56.wav'
p390
aS'c22_15_44703120.0_44704120.0.wav'
p391
aS'c15_16_31466.25_31467.33.wav'
p392
aS'C25_08_28886.52_28887.45.wav'
p393
aS'04_08_31629.5_31630.1.wav'
p394
aS'c22_15_50021840.0_50024180.0.wav'
p395
aS'c15_16_34438.18_34438.78.wav'
p396
aS'c22_15_57038400.0_57039460.0.wav'
p397
aS'15_16_166.31_166.95.wav'
p398
aS'c15_16_25799.39_25800.37.wav'
p399
aS'C25_08_22566.18_22566.78.wav'
p400
aS'23_15_28439.98_28442.26.wav'
p401
aS'c22_15_50589710.0_50590870.0.wav'
p402
aS'c22_15_50756540.0_50757190.0.wav'
p403
aS'c15_16_22194.39_22194.99.wav'
p404
aS'c15_16_1812.95_1813.75.wav'
p405
aS'c22_15_48883010.0_48884970.0.wav'
p406
aS'15_16_8888.42_8889.6.wav'
p407
aS'04_08_28302.19_28306.57.wav'
p408
aS'c15_16_5954.29_5955.82.wav'
p409
aS'15_16_32792.08_32793.14.wav'
p410
aS'04_08_19260.56_19261.16.wav'
p411
aS'04_08_44080.75_44084.8.wav'
p412
aS'C25_08_49474.75_49475.78.wav'
p413
aS'c15_16_20396.01_20397.02.wav'
p414
aS'04_08_41100.13_41101.19.wav'
p415
aS'C25_08_3533.52_3534.89.wav'
p416
aS'C25_08_24405.84_24407.91.wav'
p417
aS'c22_15_8242640.0_8243440.0.wav'
p418
aS'04_08_13909.21_13910.89.wav'
p419
aS'04_08_28337.32_28338.97.wav'
p420
aS'c15_16_5708.95_5709.66.wav'
p421
aS'15_16_2108.11_2108.86.wav'
p422
aS'C25_08_15301.92_15302.53.wav'
p423
aS'C25_08_9854.11_9856.45.wav'
p424
aS'23_15_45609.01_45609.62.wav'
p425
aS'C25_08_4502.37_4503.06.wav'
p426
aS'15_16_46960.45_46962.34.wav'
p427
aS'C25_08_39321.5_39322.1.wav'
p428
aS'23_15_31702.68_31703.36.wav'
p429
aS'04_08_41805.21_41809.01.wav'
p430
aS'23_15_46564.91_46565.54.wav'
p431
aS'C25_08_39816.81_39817.41.wav'
p432
aS'15_16_38272.78_38273.42.wav'
p433
aS'04_08_47840.49_47841.52.wav'
p434
aS'c22_15_54224860.0_54226630.0.wav'
p435
aS'c15_16_26045.92_26048.85.wav'
p436
aS'15_16_3743.3_3745.25.wav'
p437
aS'15_16_10125.92_10126.59.wav'
p438
aS'04_08_26322.63_26323.26.wav'
p439
aS'c22_15_55085660.0_55086410.0.wav'
p440
aS'23_15_543.0_545.42.wav'
p441
aS'c15_16_34839.51_34840.4.wav'
p442
aS'23_15_39284.94_39285.56.wav'
p443
aS'04_08_47445.14_47445.96.wav'
p444
aS'23_15_33615.69_33621.21.wav'
p445
aS'15_16_6806.82_6807.42.wav'
p446
aS'c22_15_48814930.0_48815930.0.wav'
p447
aS'04_08_28923.78_28925.07.wav'
p448
aS'C25_08_9432.95_9433.57.wav'
p449
aS'C25_08_21360.46_21362.78.wav'
p450
aS'15_16_2174.33_2174.93.wav'
p451
aS'c22_15_51115630.0_51116550.0.wav'
p452
aS'15_16_41368.27_41369.27.wav'
p453
aS'04_08_34667.8_34671.06.wav'
p454
aS'04_08_29898.51_29899.47.wav'
p455
aS'15_16_10187.87_10188.66.wav'
p456
aS'c15_16_34180.4_34181.2.wav'
p457
aS'23_15_7485.48_7486.17.wav'
p458
aS'04_08_19514.62_19515.95.wav'
p459
aS'C25_08_11344.15_11345.02.wav'
p460
aS'c22_15_48733590.0_48734230.0.wav'
p461
aS'23_15_56443.69_56444.51.wav'
p462
aS'C25_08_27118.37_27118.99.wav'
p463
aS'23_15_10743.99_10745.65.wav'
p464
aS'c22_15_51243260.0_51244470.0.wav'
p465
aS'c15_16_21234.15_21234.75.wav'
p466
aS'15_16_37245.84_37246.62.wav'
p467
aS'23_15_48940.94_48942.46.wav'
p468
aS'04_08_13872.59_13873.73.wav'
p469
aS'04_08_28856.61_28857.42.wav'
p470
aS'c15_16_20170.9_20171.71.wav'
p471
aS'04_08_45598.24_45599.08.wav'
p472
aS'C25_08_25437.49_25438.09.wav'
p473
aS'15_16_39649.24_39650.42.wav'
p474
aS'23_15_28434.49_28435.36.wav'
p475
aS'15_16_31337.32_31338.26.wav'
p476
aS'23_15_8175.62_8177.48.wav'
p477
aS'c15_16_5609.32_5610.24.wav'
p478
aS'23_15_1262.66_1263.4.wav'
p479
aS'23_15_27305.25_27306.09.wav'
p480
aS'15_16_42499.66_42500.52.wav'
p481
aS'c15_16_10428.02_10428.68.wav'
p482
aS'C25_08_9310.77_9311.7.wav'
p483
aS'04_08_35282.53_35283.15.wav'
p484
aS'15_16_1022.02_1023.06.wav'
p485
aS'c22_15_45109130.0_45109730.0.wav'
p486
aS'c22_15_46881470.0_46883170.0.wav'
p487
aS'c15_16_14379.13_14380.07.wav'
p488
aS'c22_15_51125670.0_51126510.0.wav'
p489
aS'C25_08_26871.15_26871.89.wav'
p490
aS'04_08_45022.92_45023.58.wav'
p491
aS'c15_16_6492.5_6493.13.wav'
p492
aS'c22_15_52319380.0_52320010.0.wav'
p493
aS'C25_08_7126.25_7127.18.wav'
p494
aS'23_15_29759.77_29760.77.wav'
p495
aS'C25_08_29026.79_29027.39.wav'
p496
aS'23_15_2838.72_2839.32.wav'
p497
aS'04_08_25920.14_25921.01.wav'
p498
aS'23_15_27859.5_27860.22.wav'
p499
aS'c15_16_52738.8_52739.7.wav'
p500
aS'15_16_32732.79_32733.79.wav'
p501
aS'C25_08_29000.83_29001.84.wav'
p502
aS'C25_08_55998.56_56002.18.wav'
p503
aS'c22_15_46418580.0_46419190.0.wav'
p504
aS'C25_08_19289.89_19290.63.wav'
p505
aS'15_16_44222.79_44223.4.wav'
p506
aS'c22_15_48738920.0_48740170.0.wav'
p507
aS'C25_08_18661.94_18662.54.wav'
p508
aS'c22_15_57067400.0_57069340.0.wav'
p509
aS'c15_16_14867.35_14868.18.wav'
p510
aS'c15_16_5623.91_5624.87.wav'
p511
aS'23_15_23399.2_23399.81.wav'
p512
aS'04_08_44424.13_44424.73.wav'
p513
aS'15_16_37277.83_37278.65.wav'
p514
aS'C25_08_403.01_404.31.wav'
p515
aS'c22_15_50530220.0_50530820.0.wav'
p516
aS'c22_15_53081190.0_53082040.0.wav'
p517
aS'15_16_32147.27_32148.35.wav'
p518
aS'c15_16_12966.34_12967.9.wav'
p519
aS'23_15_22210.65_22211.25.wav'
p520
aS'04_08_32231.92_32233.56.wav'
p521
aS'c15_16_11883.99_11884.59.wav'
p522
aS'23_15_56228.11_56228.72.wav'
p523
aS'c22_15_46076340.0_46076940.0.wav'
p524
aS'04_08_33439.9_33440.9.wav'
p525
aS'23_15_48044.75_48045.35.wav'
p526
aS'c22_15_4546860.0_4547730.0.wav'
p527
aS'04_08_33846.5_33847.21.wav'
p528
aS'c22_15_48296040.0_48298460.0.wav'
p529
aS'c22_15_3626550.0_3627150.0.wav'
p530
aS'C25_08_49024.32_49025.19.wav'
p531
aS'c15_16_25805.97_25806.6.wav'
p532
aS'15_16_32758.97_32760.62.wav'
p533
aS'23_15_10762.59_10763.61.wav'
p534
aS'c22_15_46142350.0_46144140.0.wav'
p535
aS'c15_16_25720.68_25721.97.wav'
p536
aS'23_15_46568.86_46569.92.wav'
p537
aS'23_15_9103.2_9103.85.wav'
p538
aS'c22_15_7478810.0_7479910.0.wav'
p539
aS'23_15_12633.53_12635.36.wav'
p540
aS'c15_16_9570.9_9573.03.wav'
p541
aS'23_15_41127.16_41127.8.wav'
p542
aS'23_15_48268.68_48269.48.wav'
p543
aS'15_16_9464.06_9464.66.wav'
p544
aS'04_08_29846.51_29847.16.wav'
p545
aS'04_08_42832.51_42838.04.wav'
p546
aS'c22_15_48869370.0_48870040.0.wav'
p547
aS'04_08_2463.38_2464.44.wav'
p548
aS'c15_16_6498.09_6498.84.wav'
p549
aS'C25_08_22788.97_22789.66.wav'
p550
aS'23_15_12449.28_12449.88.wav'
p551
aS'04_08_13548.64_13549.39.wav'
p552
aS'23_15_25815.95_25816.84.wav'
p553
aS'15_16_31342.62_31343.62.wav'
p554
aS'c22_15_52652700.0_52653300.0.wav'
p555
aS'04_08_8780.98_8781.59.wav'
p556
aS'04_08_40363.27_40363.89.wav'
p557
aS'c15_16_30670.86_30671.46.wav'
p558
aS'c15_16_31144.06_31145.05.wav'
p559
aS'23_15_1222.23_1223.17.wav'
p560
aS'c22_15_49342090.0_49342710.0.wav'
p561
aS'c22_15_48959260.0_48960640.0.wav'
p562
aS'23_15_8693.21_8694.53.wav'
p563
aS'C25_08_21121.83_21122.47.wav'
p564
aS'15_16_9971.93_9972.53.wav'
p565
aS'15_16_7585.51_7586.44.wav'
p566
aS'04_08_35408.44_35409.17.wav'
p567
aS'23_15_25431.4_25432.0.wav'
p568
aS'04_08_3415.81_3419.87.wav'
p569
aS'C25_08_18081.28_18081.92.wav'
p570
aS'23_15_30887.7_30888.46.wav'
p571
aS'04_08_34224.27_34227.51.wav'
p572
aS'23_15_47629.76_47630.52.wav'
p573
aS'04_08_13684.67_13685.27.wav'
p574
aS'23_15_18580.28_18581.09.wav'
p575
aS'C25_08_16222.07_16223.09.wav'
p576
aS'15_16_3768.47_3771.19.wav'
p577
aS'c15_16_5385.29_5385.89.wav'
p578
aS'23_15_39361.4_39362.02.wav'
p579
aS'c22_15_49010550.0_49011160.0.wav'
p580
aS'04_08_42532.52_42533.29.wav'
p581
aS'c22_15_53639120.0_53639780.0.wav'
p582
aS'23_15_46225.31_46225.91.wav'
p583
aS'04_08_25371.5_25372.49.wav'
p584
aS'23_15_39298.97_39301.58.wav'
p585
aS'15_16_5318.58_5319.32.wav'
p586
aS'c15_16_31190.74_31191.39.wav'
p587
aS'15_16_125.33_126.06.wav'
p588
aS'15_16_36734.49_36735.87.wav'
p589
aS'23_15_40615.94_40617.48.wav'
p590
aS'04_08_17147.67_17148.83.wav'
p591
aS'c22_15_57064780.0_57066290.0.wav'
p592
aS'c15_16_22177.33_22178.1.wav'
p593
aS'c15_16_14848.11_14848.72.wav'
p594
aS'C25_08_28864.09_28864.97.wav'
p595
aS'c15_16_14243.84_14244.73.wav'
p596
aS'C25_08_987.34_988.01.wav'
p597
aS'15_16_34649.43_34650.11.wav'
p598
aS'c22_15_51266290.0_51266910.0.wav'
p599
aS'C25_08_4337.27_4337.87.wav'
p600
aS'23_15_56357.38_56358.78.wav'
p601
aS'c15_16_22033.89_22034.49.wav'
p602
aS'23_15_48564.57_48565.62.wav'
p603
aS'15_16_8879.12_8880.71.wav'
p604
aS'C25_08_44833.33_44834.19.wav'
p605
aS'c22_15_51514930.0_51515530.0.wav'
p606
aS'C25_08_43708.72_43709.51.wav'
p607
aS'c22_15_53627200.0_53628210.0.wav'
p608
aS'04_08_47431.32_47431.93.wav'
p609
aS'C25_08_1139.45_1143.05.wav'
p610
aS'c15_16_19576.42_19577.42.wav'
p611
aS'c15_16_26153.09_26154.47.wav'
p612
aS'23_15_39437.35_39440.04.wav'
p613
aS'23_15_43037.89_43038.49.wav'
p614
aS'c22_15_52434190.0_52434870.0.wav'
p615
aS'04_08_8052.74_8053.54.wav'
p616
aS'04_08_30342.57_30343.17.wav'
p617
aS'c22_15_1673600.0_1674210.0.wav'
p618
aS'04_08_46717.48_46718.3.wav'
p619
aS'15_16_14038.19_14040.22.wav'
p620
aS'c15_16_1288.97_1289.57.wav'
p621
aS'15_16_3159.33_3159.93.wav'
p622
aS'04_08_18604.34_18604.94.wav'
p623
aS'15_16_42611.4_42612.0.wav'
p624
aS'04_08_39608.89_39610.19.wav'
p625
aS'04_08_19489.03_19489.67.wav'
p626
aS'c15_16_33524.57_33527.5.wav'
p627
aS'23_15_23759.91_23761.5.wav'
p628
aS'23_15_23946.19_23949.59.wav'
p629
aS'c15_16_13712.39_13713.14.wav'
p630
aS'c22_15_53268580.0_53270820.0.wav'
p631
aS'c15_16_7186.27_7186.87.wav'
p632
aS'15_16_11773.85_11775.02.wav'
p633
aS'23_15_45140.44_45141.04.wav'
p634
aS'C25_08_1205.33_1205.93.wav'
p635
aS'23_15_34142.07_34142.85.wav'
p636
aS'23_15_38996.42_38997.42.wav'
p637
aS'04_08_30919.95_30921.13.wav'
p638
aS'04_08_45312.25_45313.2.wav'
p639
aS'c22_15_50788440.0_50792140.0.wav'
p640
aS'23_15_12585.49_12586.14.wav'
p641
aS'15_16_41339.03_41340.95.wav'
p642
aS'C25_08_24325.02_24325.63.wav'
p643
aS'C25_08_55879.43_55880.03.wav'
p644
aS'c15_16_520.9_521.5.wav'
p645
aS'c22_15_48283470.0_48284090.0.wav'
p646
aS'15_16_8849.66_8850.72.wav'
p647
aS'04_08_18531.13_18531.73.wav'
p648
aS'c22_15_45827860.0_45828800.0.wav'
p649
aS'c15_16_30451.87_30452.47.wav'
p650
aS'23_15_44645.87_44646.76.wav'
p651
aS'23_15_24119.61_24120.78.wav'
p652
aS'c22_15_57040350.0_57042370.0.wav'
p653
aS'C25_08_8441.25_8442.64.wav'
p654
aS'04_08_43668.42_43669.02.wav'
p655
aS'c22_15_57034720.0_57037600.0.wav'
p656
aS'04_08_46288.32_46289.52.wav'
p657
aS'04_08_2434.86_2435.59.wav'
p658
aS'23_15_25993.93_25994.88.wav'
p659
aS'15_16_4074.86_4075.97.wav'
p660
aS'04_08_29603.83_29604.52.wav'
p661
aS'23_15_34999.01_35000.22.wav'
p662
aS'15_16_6655.71_6656.99.wav'
p663
aS'C25_08_27008.04_27009.52.wav'
p664
aS'C25_08_23994.74_23995.74.wav'
p665
aS'C25_08_39260.89_39261.49.wav'
p666
aS'c22_15_57045500.0_57047680.0.wav'
p667
aS'04_08_31879.25_31880.27.wav'
p668
aS'04_08_19533.02_19534.13.wav'
p669
aS'04_08_34069.17_34070.44.wav'
p670
aS'23_15_44475.37_44475.97.wav'
p671
aS'23_15_3244.93_3245.91.wav'
p672
aS'C25_08_9415.32_9416.75.wav'
p673
aS'15_16_41445.11_41447.39.wav'
p674
aS'c22_15_56969280.0_56971310.0.wav'
p675
aS'15_16_45107.43_45108.31.wav'
p676
aS'C25_08_26899.07_26900.24.wav'
p677
aS'04_08_46496.32_46497.24.wav'
p678
aS'c22_15_6162330.0_6162930.0.wav'
p679
aS'c22_15_53800550.0_53804060.0.wav'
p680
aS'c22_15_50443900.0_50444520.0.wav'
p681
aS'23_15_39332.99_39336.33.wav'
p682
aS'04_08_46498.37_46499.71.wav'
p683
aS'c22_15_57009550.0_57012280.0.wav'
p684
aS'23_15_33307.68_33308.68.wav'
p685
aV15_16_43901.62_43902.97.wav
p686
aV23_15_1099.21_1100.05.wav
p687
aV23_15_14883.58_14884.99.wav
p688
aVc22_15_45403730.0_45404820.0.wav
p689
aVc22_15_1311170.0_1315580.0.wav
p690
aV23_15_56638.94_56639.63.wav
p691
aVc22_15_53915130.0_53916230.0.wav
p692
aVC25_08_25120.63_25121.29.wav
p693
aVC25_08_24809.85_24810.73.wav
p694
aVc15_16_44410.89_44411.89.wav
p695
aV04_08_48142.19_48142.92.wav
p696
aVc15_16_34231.57_34232.17.wav
p697
aVc15_16_46044.98_46045.58.wav
p698
aVc15_16_18077.33_18080.35.wav
p699
aVc22_15_46979490.0_46980090.0.wav
p700
aV04_08_8092.67_8095.53.wav
p701
aV23_15_18448.18_18449.24.wav
p702
aV15_16_2631.59_2632.25.wav
p703
aVc22_15_37350.0_37950.0.wav
p704
aV15_16_1123.68_1124.37.wav
p705
aV15_16_36974.44_36975.74.wav
p706
aVc15_16_9448.61_9449.51.wav
p707
aVc22_15_40750610.0_40751470.0.wav
p708
aVc22_15_45846430.0_45847730.0.wav
p709
aV15_16_31372.35_31374.15.wav
p710
aVc15_16_34.57_35.21.wav
p711
aVc22_15_48408490.0_48409090.0.wav
p712
aV23_15_7021.33_7021.93.wav
p713
aVc15_16_24786.8_24787.4.wav
p714
aV23_15_20192.6_20193.48.wav
p715
aVc22_15_53984250.0_53984970.0.wav
p716
aVC25_08_57158.79_57160.11.wav
p717
aV23_15_3763.15_3763.75.wav
p718
aV04_08_35033.43_35034.04.wav
p719
aVc22_15_49038560.0_49039570.0.wav
p720
aVc22_15_49144120.0_49145340.0.wav
p721
aV15_16_33119.87_33120.88.wav
p722
aV23_15_41188.74_41189.62.wav
p723
aVC25_08_22543.51_22544.15.wav
p724
aVC25_08_44886.9_44888.52.wav
p725
aVc22_15_49191180.0_49191780.0.wav
p726
aV04_08_43825.84_43828.2.wav
p727
aVC25_08_44402.75_44403.46.wav
p728
aV23_15_8388.14_8388.87.wav
p729
aVC25_08_28871.95_28873.05.wav
p730
aV23_15_38620.85_38621.45.wav
p731
aV15_16_39787.68_39789.19.wav
p732
aVc15_16_19602.88_19603.81.wav
p733
aV04_08_32495.83_32498.93.wav
p734
aV15_16_45870.54_45872.39.wav
p735
aV04_08_47886.48_47887.53.wav
p736
aVc15_16_20530.7_20532.01.wav
p737
aVc15_16_36813.95_36816.89.wav
p738
aVc15_16_31862.72_31863.32.wav
p739
aV15_16_10072.76_10073.36.wav
p740
aV04_08_39992.4_39993.38.wav
p741
aVc15_16_18052.25_18052.86.wav
p742
aVc15_16_5602.58_5603.53.wav
p743
aVc15_16_9063.55_9064.28.wav
p744
aV15_16_36425.48_36426.22.wav
p745
aVc15_16_14416.81_14418.33.wav
p746
aVC25_08_3099.8_3100.4.wav
p747
aVc22_15_53564360.0_53565730.0.wav
p748
aV04_08_24900.91_24901.71.wav
p749
aV04_08_34870.91_34871.57.wav
p750
aV23_15_21748.15_21748.86.wav
p751
aVC25_08_49436.81_49438.63.wav
p752
aVc15_16_21729.24_21729.92.wav
p753
aVc22_15_42589690.0_42590750.0.wav
p754
aVc15_16_6389.36_6390.49.wav
p755
aVc22_15_50015490.0_50016090.0.wav
p756
aVC25_08_418.73_419.33.wav
p757
aVC25_08_418.73_419.33.wav
p758
aVc22_15_46154040.0_46154770.0.wav
p759
aV15_16_804.0_804.61.wav
p760
aVc15_16_21980.23_21980.93.wav
p761
aVc22_15_50859550.0_50860550.0.wav
p762
aVC25_08_44897.36_44898.73.wav
p763
aVc15_16_35313.02_35313.96.wav
p764
aVC25_08_24837.78_24841.21.wav
p765
aVc22_15_51874580.0_51875180.0.wav
p766
aVC25_08_14185.81_14186.81.wav
p767
aV23_15_16981.07_16981.96.wav
p768
aVc22_15_55038040.0_55038640.0.wav
p769
aVC25_08_20797.77_20799.04.wav
p770
aVc15_16_35820.33_35821.33.wav
p771
aVC25_08_511.62_512.61.wav
p772
aVc15_16_5616.47_5617.2.wav
p773
aV04_08_17126.79_17127.4.wav
p774
aV23_15_45481.59_45482.19.wav
p775
aV15_16_10127.65_10128.27.wav
p776
aV15_16_46232.58_46237.22.wav
p777
aV23_15_30129.46_30130.06.wav
p778
aVc22_15_48806120.0_48806850.0.wav
p779
aVc22_15_2641220.0_2642330.0.wav
p780
aV15_16_1254.85_1256.05.wav
p781
aVC25_08_17279.74_17282.04.wav
p782
aVc15_16_18309.5_18311.33.wav
p783
aVC25_08_21949.91_21950.97.wav
p784
aV04_08_46870.85_46871.51.wav
p785
aVc15_16_30333.14_30333.85.wav
p786
aV15_16_43901.62_43902.97.wav
p787
aV23_15_1099.21_1100.05.wav
p788
aV23_15_14883.58_14884.99.wav
p789
aVc22_15_45403730.0_45404820.0.wav
p790
aVc22_15_1311170.0_1315580.0.wav
p791
aV23_15_56638.94_56639.63.wav
p792
aVc22_15_53915130.0_53916230.0.wav
p793
aVC25_08_25120.63_25121.29.wav
p794
aVC25_08_24809.85_24810.73.wav
p795
aVc15_16_44410.89_44411.89.wav
p796
aV04_08_48142.19_48142.92.wav
p797
aVc15_16_34231.57_34232.17.wav
p798
aVc15_16_46044.98_46045.58.wav
p799
aVc15_16_18077.33_18080.35.wav
p800
aVc22_15_46979490.0_46980090.0.wav
p801
aV04_08_8092.67_8095.53.wav
p802
aV23_15_18448.18_18449.24.wav
p803
aV15_16_2631.59_2632.25.wav
p804
aVc22_15_37350.0_37950.0.wav
p805
aV15_16_1123.68_1124.37.wav
p806
aV15_16_36974.44_36975.74.wav
p807
aVc15_16_9448.61_9449.51.wav
p808
aVc22_15_40750610.0_40751470.0.wav
p809
aVc22_15_45846430.0_45847730.0.wav
p810
aV15_16_31372.35_31374.15.wav
p811
aVc15_16_34.57_35.21.wav
p812
aVc22_15_48408490.0_48409090.0.wav
p813
aV23_15_7021.33_7021.93.wav
p814
aVc15_16_24786.8_24787.4.wav
p815
aV23_15_20192.6_20193.48.wav
p816
aVc22_15_53984250.0_53984970.0.wav
p817
aVC25_08_57158.79_57160.11.wav
p818
aV23_15_3763.15_3763.75.wav
p819
aV04_08_35033.43_35034.04.wav
p820
aVc22_15_49038560.0_49039570.0.wav
p821
aVc22_15_49144120.0_49145340.0.wav
p822
aV15_16_33119.87_33120.88.wav
p823
aV23_15_41188.74_41189.62.wav
p824
aVC25_08_22543.51_22544.15.wav
p825
aVC25_08_44886.9_44888.52.wav
p826
aVc22_15_49191180.0_49191780.0.wav
p827
aV04_08_43825.84_43828.2.wav
p828
aVC25_08_44402.75_44403.46.wav
p829
aV23_15_8388.14_8388.87.wav
p830
aVC25_08_28871.95_28873.05.wav
p831
aV23_15_38620.85_38621.45.wav
p832
aV15_16_39787.68_39789.19.wav
p833
aVc15_16_19602.88_19603.81.wav
p834
aV04_08_32495.83_32498.93.wav
p835
aV15_16_45870.54_45872.39.wav
p836
aV04_08_47886.48_47887.53.wav
p837
aVc15_16_20530.7_20532.01.wav
p838
aVc15_16_36813.95_36816.89.wav
p839
aVc15_16_31862.72_31863.32.wav
p840
aV15_16_10072.76_10073.36.wav
p841
aV04_08_39992.4_39993.38.wav
p842
aV04_08_39992.4_39993.38.wav
p843
aVc15_16_18052.25_18052.86.wav
p844
aVc15_16_5602.58_5603.53.wav
p845
aVc15_16_9063.55_9064.28.wav
p846
aV15_16_36425.48_36426.22.wav
p847
aVc15_16_14416.81_14418.33.wav
p848
aVC25_08_3099.8_3100.4.wav
p849
aVc22_15_53564360.0_53565730.0.wav
p850
aV04_08_24900.91_24901.71.wav
p851
aV04_08_34870.91_34871.57.wav
p852
aV23_15_21748.15_21748.86.wav
p853
aVC25_08_49436.81_49438.63.wav
p854
aVc15_16_21729.24_21729.92.wav
p855
aVc22_15_42589690.0_42590750.0.wav
p856
aVc15_16_6389.36_6390.49.wav
p857
aVc22_15_50015490.0_50016090.0.wav
p858
aVC25_08_418.73_419.33.wav
p859
aVc22_15_46154040.0_46154770.0.wav
p860
aV15_16_804.0_804.61.wav
p861
aVc15_16_21980.23_21980.93.wav
p862
aVc22_15_50859550.0_50860550.0.wav
p863
aVC25_08_44897.36_44898.73.wav
p864
aVc15_16_35313.02_35313.96.wav
p865
aVC25_08_24837.78_24841.21.wav
p866
aVc22_15_51874580.0_51875180.0.wav
p867
aVC25_08_14185.81_14186.81.wav
p868
aV23_15_16981.07_16981.96.wav
p869
aVc22_15_55038040.0_55038640.0.wav
p870
aVC25_08_20797.77_20799.04.wav
p871
aVc15_16_35820.33_35821.33.wav
p872
aVC25_08_511.62_512.61.wav
p873
aVc15_16_5616.47_5617.2.wav
p874
aV04_08_17126.79_17127.4.wav
p875
aV23_15_45481.59_45482.19.wav
p876
aV15_16_10127.65_10128.27.wav
p877
aV15_16_46232.58_46237.22.wav
p878
aV23_15_30129.46_30130.06.wav
p879
aVc22_15_48806120.0_48806850.0.wav
p880
aVc22_15_2641220.0_2642330.0.wav
p881
aV15_16_1254.85_1256.05.wav
p882
aVC25_08_17279.74_17282.04.wav
p883
aVc15_16_18309.5_18311.33.wav
p884
aVC25_08_21949.91_21950.97.wav
p885
aV04_08_46870.85_46871.51.wav
p886
aV04_08_46870.85_46871.51.wav
p887
aVc15_16_30333.14_30333.85.wav
p888
aVc15_16_10911.59_10912.19.wav
p889
aVc22_15_47874390.0_47874990.0.wav
p890
aV04_08_18122.39_18123.23.wav
p891
aV23_15_44764.18_44764.97.wav
p892
aVC25_08_29255.43_29256.33.wav
p893
aV23_15_37964.29_37965.02.wav
p894
aVc22_15_53224880.0_53226420.0.wav
p895
aV15_16_33868.88_33871.62.wav
p896
aV15_16_33868.88_33871.62.wav
p897
aV04_08_25877.9_25879.02.wav
p898
aV23_15_12842.28_12843.91.wav
p899
aVc15_16_13903.23_13904.23.wav
p900
aV04_08_2341.85_2342.57.wav
p901
aV04_08_43802.36_43803.03.wav
p902
aV15_16_47345.99_47346.59.wav
p903
aVc22_15_49821590.0_49822200.0.wav
p904
aV15_16_2900.59_2901.19.wav
p905
aVC25_08_4021.19_4022.0.wav
p906
aVC25_08_29499.34_29500.74.wav
p907
aVC25_08_21461.26_21462.76.wav
p908
aV23_15_97.87_99.6.wav
p909
aV15_16_4009.41_4010.16.wav
p910
aV04_08_29718.35_29719.2.wav
p911
aVc15_16_51.2_52.51.wav
p912
aVc15_16_51.2_52.51.wav
p913
aV23_15_38968.97_38970.92.wav
p914
aVc22_15_44870150.0_44870780.0.wav
p915
aVc15_16_24182.04_24182.86.wav
p916
aVc15_16_26780.36_26781.24.wav
p917
aV04_08_29239.39_29240.02.wav
p918
aV04_08_39990.69_39991.4.wav
p919
aVc15_16_31085.5_31086.1.wav
p920
aVc15_16_4209.84_4210.44.wav
p921
aV15_16_17674.0_17675.57.wav
p922
aVc22_15_51345440.0_51346450.0.wav
p923
aV04_08_19339.88_19340.49.wav
p924
aV04_08_3466.93_3468.64.wav
p925
aVc22_15_47391910.0_47393020.0.wav
p926
aV04_08_30181.52_30184.82.wav
p927
aV04_08_46579.16_46581.51.wav
p928
aV04_08_8826.28_8827.13.wav
p929
aVc22_15_53717100.0_53717870.0.wav
p930
aVc22_15_50053270.0_50054310.0.wav
p931
aV23_15_20354.77_20355.89.wav
p932
aV15_16_6695.98_6696.64.wav
p933
aV23_15_15228.21_15229.65.wav
p934
aVc15_16_9523.42_9533.45.wav
p935
aVc15_16_34554.01_34555.47.wav
p936
aV15_16_34412.54_34413.48.wav
p937
aV15_16_32259.14_32259.76.wav
p938
aV04_08_17241.21_17241.97.wav
p939
aV23_15_44455.94_44457.6.wav
p940
aVC25_08_20220.18_20220.78.wav
p941
aVc15_16_14039.44_14040.44.wav
p942
aV15_16_4967.16_4967.76.wav
p943
aVC25_08_9269.47_9270.07.wav
p944
aV23_15_19944.41_19945.31.wav
p945
aVc15_16_31228.62_31229.74.wav
p946
aV15_16_41476.54_41477.29.wav
p947
aV15_16_47016.65_47017.79.wav
p948
aV15_16_47016.65_47017.79.wav
p949
aVC25_08_28842.66_28843.26.wav
p950
aV04_08_2827.8_2828.4.wav
p951
aVC25_08_4554.43_4555.38.wav
p952
aV23_15_36614.59_36615.23.wav
p953
aV23_15_10519.6_10520.2.wav
p954
aVC25_08_20423.04_20423.65.wav
p955
aV04_08_42056.07_42056.67.wav
p956
aVC25_08_24911.04_24911.64.wav
p957
aVc22_15_55627350.0_55628840.0.wav
p958
aV15_16_37350.65_37351.25.wav
p959
aVc22_15_45229930.0_45231140.0.wav
p960
aV04_08_33709.02_33709.67.wav
p961
aVc15_16_33856.04_33856.68.wav
p962
aV23_15_30310.17_30310.85.wav
p963
aV15_16_17386.24_17392.85.wav
p964
aV23_15_6432.82_6433.82.wav
p965
aV15_16_44402.1_44403.02.wav
p966
aV04_08_30543.4_30544.32.wav
p967
aV23_15_18592.1_18593.0.wav
p968
aV15_16_2824.99_2825.59.wav
p969
aVC25_08_608.05_608.81.wav
p970
aVc15_16_2746.7_2747.31.wav
p971
aVc15_16_10998.38_10999.38.wav
p972
aV23_15_12765.94_12766.54.wav
p973
aVC25_08_15514.09_15514.72.wav
p974
aVc15_16_44365.15_44365.75.wav
p975
aVc22_15_56306430.0_56307430.0.wav
p976
aVc15_16_14266.06_14267.06.wav
p977
aV23_15_6477.36_6477.99.wav
p978
aV04_08_30135.14_30135.74.wav
p979
aVc22_15_1105070.0_1108310.0.wav
p980
aV04_08_35744.77_35745.37.wav
p981
aV04_08_34101.6_34105.4.wav
p982
aVC25_08_1119.98_1121.19.wav
p983
aV23_15_2247.24_2248.46.wav
p984
aV04_08_19479.27_19479.87.wav
p985
aVC25_08_11350.54_11351.34.wav
p986
aV23_15_3171.29_3173.04.wav
p987
aV23_15_25483.09_25485.23.wav
p988
aVc22_15_53212440.0_53213040.0.wav
p989
aVC25_08_22656.48_22657.1.wav
p990
aV04_08_34663.8_34664.61.wav
p991
aVc15_16_10911.59_10912.19.wav
p992
aVc22_15_47874390.0_47874990.0.wav
p993
aV04_08_18122.39_18123.23.wav
p994
aV23_15_44764.18_44764.97.wav
p995
aVC25_08_29255.43_29256.33.wav
p996
aV23_15_37964.29_37965.02.wav
p997
aVc22_15_53224880.0_53226420.0.wav
p998
aV15_16_33868.88_33871.62.wav
p999
aV04_08_25877.9_25879.02.wav
p1000
aV23_15_12842.28_12843.91.wav
p1001
aVc15_16_13903.23_13904.23.wav
p1002
aV04_08_2341.85_2342.57.wav
p1003
aV04_08_43802.36_43803.03.wav
p1004
aV15_16_47345.99_47346.59.wav
p1005
aVc22_15_49821590.0_49822200.0.wav
p1006
aV15_16_2900.59_2901.19.wav
p1007
aVC25_08_4021.19_4022.0.wav
p1008
aVC25_08_29499.34_29500.74.wav
p1009
aVC25_08_21461.26_21462.76.wav
p1010
aV23_15_97.87_99.6.wav
p1011
aV15_16_4009.41_4010.16.wav
p1012
aV04_08_29718.35_29719.2.wav
p1013
aVc15_16_51.2_52.51.wav
p1014
aV23_15_38968.97_38970.92.wav
p1015
aVc22_15_44870150.0_44870780.0.wav
p1016
aVc15_16_24182.04_24182.86.wav
p1017
aVc15_16_26780.36_26781.24.wav
p1018
aV04_08_29239.39_29240.02.wav
p1019
aV04_08_39990.69_39991.4.wav
p1020
aVc15_16_31085.5_31086.1.wav
p1021
aVc15_16_4209.84_4210.44.wav
p1022
aV15_16_17674.0_17675.57.wav
p1023
aVc22_15_51345440.0_51346450.0.wav
p1024
aV04_08_19339.88_19340.49.wav
p1025
aV04_08_3466.93_3468.64.wav
p1026
aVc22_15_47391910.0_47393020.0.wav
p1027
aV04_08_30181.52_30184.82.wav
p1028
aV04_08_46579.16_46581.51.wav
p1029
aV04_08_8826.28_8827.13.wav
p1030
aVc22_15_53717100.0_53717870.0.wav
p1031
aVc22_15_50053270.0_50054310.0.wav
p1032
aV23_15_20354.77_20355.89.wav
p1033
aV15_16_6695.98_6696.64.wav
p1034
aV23_15_15228.21_15229.65.wav
p1035
aVc15_16_9523.42_9533.45.wav
p1036
aVc15_16_34554.01_34555.47.wav
p1037
aV15_16_34412.54_34413.48.wav
p1038
aV15_16_32259.14_32259.76.wav
p1039
aV04_08_17241.21_17241.97.wav
p1040
aV23_15_44455.94_44457.6.wav
p1041
aVC25_08_20220.18_20220.78.wav
p1042
aVc15_16_14039.44_14040.44.wav
p1043
aV15_16_4967.16_4967.76.wav
p1044
aVC25_08_9269.47_9270.07.wav
p1045
aV23_15_19944.41_19945.31.wav
p1046
aV23_15_19944.41_19945.31.wav
p1047
aVc15_16_31228.62_31229.74.wav
p1048
aV15_16_41476.54_41477.29.wav
p1049
aV15_16_47016.65_47017.79.wav
p1050
aVC25_08_28842.66_28843.26.wav
p1051
aV04_08_2827.8_2828.4.wav
p1052
aVC25_08_4554.43_4555.38.wav
p1053
aV23_15_36614.59_36615.23.wav
p1054
aV23_15_10519.6_10520.2.wav
p1055
aVC25_08_20423.04_20423.65.wav
p1056
aV04_08_42056.07_42056.67.wav
p1057
aVC25_08_24911.04_24911.64.wav
p1058
aVc22_15_55627350.0_55628840.0.wav
p1059
aV15_16_37350.65_37351.25.wav
p1060
aVc22_15_45229930.0_45231140.0.wav
p1061
aV04_08_33709.02_33709.67.wav
p1062
aVc15_16_33856.04_33856.68.wav
p1063
aV23_15_30310.17_30310.85.wav
p1064
aV15_16_17386.24_17392.85.wav
p1065
aV23_15_6432.82_6433.82.wav
p1066
aV15_16_44402.1_44403.02.wav
p1067
aV04_08_30543.4_30544.32.wav
p1068
aV23_15_18592.1_18593.0.wav
p1069
aV15_16_2824.99_2825.59.wav
p1070
aVC25_08_608.05_608.81.wav
p1071
aVc15_16_2746.7_2747.31.wav
p1072
aVc15_16_10998.38_10999.38.wav
p1073
aV23_15_12765.94_12766.54.wav
p1074
aVC25_08_15514.09_15514.72.wav
p1075
aVc15_16_44365.15_44365.75.wav
p1076
aVc22_15_56306430.0_56307430.0.wav
p1077
aVc15_16_14266.06_14267.06.wav
p1078
aV23_15_6477.36_6477.99.wav
p1079
aV04_08_30135.14_30135.74.wav
p1080
aVc22_15_1105070.0_1108310.0.wav
p1081
aV04_08_35744.77_35745.37.wav
p1082
aV04_08_34101.6_34105.4.wav
p1083
aVC25_08_1119.98_1121.19.wav
p1084
aV23_15_2247.24_2248.46.wav
p1085
aV04_08_19479.27_19479.87.wav
p1086
aVC25_08_11350.54_11351.34.wav
p1087
aV23_15_3171.29_3173.04.wav
p1088
aV23_15_25483.09_25485.23.wav
p1089
aVc22_15_53212440.0_53213040.0.wav
p1090
aVC25_08_22656.48_22657.1.wav
p1091
aV04_08_34663.8_34664.61.wav
p1092
aV04_08_28702.39_28702.99.wav
p1093
aV04_08_46679.25_46680.62.wav
p1094
aVC25_08_15199.35_15201.15.wav
p1095
aVc15_16_27582.91_27585.1.wav
p1096
aVC25_08_30009.54_30010.14.wav
p1097
aVc22_15_45671370.0_45671970.0.wav
p1098
aVc22_15_50901350.0_50902420.0.wav
p1099
aV23_15_9219.28_9219.95.wav
p1100
aV04_08_29177.76_29178.37.wav
p1101
aVC25_08_9591.97_9593.94.wav
p1102
aV04_08_25465.68_25466.28.wav
p1103
aVc15_16_11897.3_11898.98.wav
p1104
aV23_15_35493.37_35494.17.wav
p1105
aV04_08_19350.65_19351.25.wav
p1106
aVC25_08_6596.17_6602.88.wav
p1107
aV15_16_17194.71_17195.37.wav
p1108
aV23_15_46619.04_46619.82.wav
p1109
aV04_08_8770.58_8771.18.wav
p1110
aV04_08_27585.41_27586.01.wav
p1111
aV04_08_33781.95_33784.47.wav
p1112
aVc22_15_606580.0_607180.0.wav
p1113
aVC25_08_674.24_675.24.wav
p1114
aVC25_08_17291.29_17293.1.wav
p1115
aV15_16_46571.09_46572.56.wav
p1116
aV15_16_2851.99_2852.97.wav
p1117
aVc22_15_56058750.0_56060190.0.wav
p1118
aVC25_08_1255.42_1256.29.wav
p1119
aV23_15_38709.59_38711.5.wav
p1120
aV23_15_56337.96_56338.57.wav
p1121
aV15_16_37313.73_37314.53.wav
p1122
aV04_08_2711.32_2712.71.wav
p1123
aVC25_08_21354.25_21354.91.wav
p1124
aVC25_08_14087.6_14088.36.wav
p1125
aV04_08_33728.69_33729.6.wav
p1126
aVc15_16_19875.45_19876.05.wav
p1127
aVC25_08_31490.26_31490.86.wav
p1128
aVc22_15_51057790.0_51059790.0.wav
p1129
aVc15_16_34484.9_34487.5.wav
p1130
aVc22_15_53399120.0_53403700.0.wav
p1131
aVc15_16_35834.84_35836.63.wav
p1132
aV23_15_10715.41_10717.41.wav
p1133
aV15_16_44134.84_44136.41.wav
p1134
aV15_16_11144.84_11145.53.wav
p1135
aVc15_16_30789.09_30789.69.wav
p1136
aVc22_15_1297640.0_1302560.0.wav
p1137
aVC25_08_29323.84_29325.13.wav
p1138
aV23_15_56158.68_56159.28.wav
p1139
aVc15_16_12015.1_12016.17.wav
p1140
aV04_08_34708.99_34709.92.wav
p1141
aVC25_08_23864.63_23865.23.wav
p1142
aVc22_15_44395820.0_44396430.0.wav
p1143
aVC25_08_27207.51_27208.97.wav
p1144
aVc15_16_21889.14_21889.74.wav
p1145
aV04_08_32043.05_32043.65.wav
p1146
aV15_16_9546.64_9547.25.wav
p1147
aV23_15_36800.56_36801.69.wav
p1148
aV23_15_18421.01_18423.73.wav
p1149
aVc15_16_53481.88_53482.56.wav
p1150
aVc15_16_20774.83_20775.43.wav
p1151
aVc22_15_43257300.0_43259200.0.wav
p1152
aVC25_08_18031.8_18032.43.wav
p1153
aV15_16_34535.65_34536.52.wav
p1154
aVc15_16_3773.47_3776.25.wav
p1155
aV23_15_103.49_106.78.wav
p1156
aV23_15_24142.03_24143.1.wav
p1157
aV23_15_7279.48_7280.14.wav
p1158
aV23_15_49174.53_49175.33.wav
p1159
aVc15_16_20138.81_20140.6.wav
p1160
aVc22_15_57383760.0_57384900.0.wav
p1161
aV04_08_8536.32_8537.29.wav
p1162
aV04_08_16695.77_16697.04.wav
p1163
aV04_08_17944.18_17945.4.wav
p1164
aV15_16_31512.5_31513.13.wav
p1165
aVC25_08_24139.9_24140.64.wav
p1166
aV23_15_26083.46_26086.4.wav
p1167
aVc15_16_19585.97_19586.57.wav
p1168
aVc22_15_52164750.0_52165450.0.wav
p1169
aV04_08_30534.69_30537.12.wav
p1170
aVC25_08_10148.79_10149.39.wav
p1171
aVC25_08_22505.42_22506.44.wav
p1172
aVC25_08_40190.05_40191.59.wav
p1173
aVC25_08_14884.06_14884.8.wav
p1174
aV23_15_1992.16_1993.19.wav
p1175
aVc22_15_51021660.0_51022740.0.wav
p1176
aV23_15_40885.94_40886.8.wav
p1177
aV15_16_4014.24_4014.84.wav
p1178
aVc22_15_47775710.0_47776350.0.wav
p1179
aVC25_08_4598.83_4600.35.wav
p1180
aVC25_08_48012.78_48013.4.wav
p1181
aVc22_15_8274320.0_8275840.0.wav
p1182
aVC25_08_21347.18_21349.05.wav
p1183
aV15_16_11887.91_11888.9.wav
p1184
aVC25_08_15622.72_15625.54.wav
p1185
aVc22_15_51105880.0_51106480.0.wav
p1186
aVc22_15_49187610.0_49188450.0.wav
p1187
aVC25_08_31446.65_31447.25.wav
p1188
aV04_08_46531.68_46532.28.wav
p1189
aV04_08_28831.77_28832.51.wav
p1190
aVC25_08_56095.24_56096.67.wav
p1191
aVc22_15_53798960.0_53799640.0.wav
p1192
aVc22_15_53774240.0_53776010.0.wav
p1193
aVC25_08_21509.51_21511.14.wav
p1194
aVc15_16_20226.09_20226.71.wav
p1195
aV23_15_40742.71_40743.31.wav
p1196
aV04_08_30128.23_30128.83.wav
p1197
aV04_08_27117.87_27118.63.wav
p1198
aVC25_08_23024.15_23026.94.wav
p1199
aVc22_15_47777420.0_47779300.0.wav
p1200
aVc15_16_18471.64_18472.63.wav
p1201
aV23_15_41826.82_41827.42.wav
p1202
aVC25_08_17230.46_17231.47.wav
p1203
aV23_15_8228.63_8229.43.wav
p1204
aV15_16_45968.01_45969.56.wav
p1205
aVc15_16_32014.6_32015.4.wav
p1206
aVc15_16_14527.67_14528.45.wav
p1207
aVC25_08_20700.42_20701.44.wav
p1208
aV23_15_29784.76_29785.39.wav
p1209
aV23_15_44849.35_44849.95.wav
p1210
aVc15_16_31680.49_31681.22.wav
p1211
aVc22_15_53190000.0_53190940.0.wav
p1212
aV15_16_36199.66_36200.26.wav
p1213
aV23_15_39014.72_39015.85.wav
p1214
aV15_16_6645.95_6646.75.wav
p1215
aVC25_08_23695.16_23695.88.wav
p1216
aVc15_16_23979.42_23980.42.wav
p1217
aV15_16_4502.15_4504.14.wav
p1218
aV15_16_19167.22_19168.1.wav
p1219
aV15_16_46996.01_46996.66.wav
p1220
aV23_15_31449.84_31450.83.wav
p1221
aVC25_08_21241.66_21242.31.wav
p1222
aVc15_16_12414.72_12415.74.wav
p1223
aV15_16_45908.66_45909.26.wav
p1224
aVc15_16_20088.41_20089.17.wav
p1225
aVc22_15_50619560.0_50620160.0.wav
p1226
aVc22_15_51465410.0_51466210.0.wav
p1227
aVc22_15_50969850.0_50970450.0.wav
p1228
aV23_15_13640.91_13641.51.wav
p1229
aVc15_16_33315.73_33316.33.wav
p1230
aVC25_08_57277.98_57278.58.wav
p1231
aVc15_16_26177.64_26178.24.wav
p1232
aVC25_08_55917.36_55922.85.wav
p1233
aV15_16_36985.71_36986.39.wav
p1234
aVc15_16_3684.9_3685.5.wav
p1235
aVc15_16_13371.91_13372.51.wav
p1236
aV23_15_14077.24_14079.24.wav
p1237
aVc22_15_53148800.0_53149480.0.wav
p1238
aVc15_16_26271.94_26272.54.wav
p1239
aV23_15_16198.06_16198.79.wav
p1240
aV04_08_46731.97_46732.57.wav
p1241
aV04_08_1687.3_1688.03.wav
p1242
aV15_16_39741.37_39741.99.wav
p1243
aV04_08_46863.38_46864.38.wav
p1244
aVc15_16_27468.66_27469.64.wav
p1245
aVc22_15_51571660.0_51573460.0.wav
p1246
aV15_16_1020.36_1021.22.wav
p1247
aV15_16_15180.9_15181.5.wav
p1248
aV15_16_36885.2_36885.97.wav
p1249
aV04_08_43875.87_43876.48.wav
p1250
aVC25_08_29844.88_29845.68.wav
p1251
aVc15_16_21169.23_21170.05.wav
p1252
aV15_16_32301.15_32301.75.wav
p1253
aV04_08_39583.53_39584.63.wav
p1254
aVc15_16_11909.96_11911.64.wav
p1255
aVC25_08_29486.9_29487.6.wav
p1256
aV23_15_5581.38_5583.06.wav
p1257
aV23_15_18579.28_18580.28.wav
p1258
aV04_08_41075.63_41076.76.wav
p1259
aVc15_16_21149.29_21151.49.wav
p1260
aVc15_16_3989.53_3990.33.wav
p1261
aVc15_16_26531.27_26531.87.wav
p1262
aVC25_08_4252.62_4253.22.wav
p1263
aVC25_08_30855.78_30857.53.wav
p1264
aVc22_15_55341450.0_55342050.0.wav
p1265
aV23_15_14657.68_14661.16.wav
p1266
aVC25_08_3684.24_3684.97.wav
p1267
aVc22_15_48055680.0_48056660.0.wav
p1268
aV04_08_46675.67_46676.84.wav
p1269
aV15_16_45586.33_45586.99.wav
p1270
aVC25_08_45168.05_45169.03.wav
p1271
aVc15_16_27546.05_27546.66.wav
p1272
aV15_16_37578.64_37579.51.wav
p1273
aVc15_16_20188.93_20189.73.wav
p1274
aV04_08_1505.38_1506.75.wav
p1275
aVc15_16_34058.32_34058.92.wav
p1276
aV15_16_4804.86_4805.65.wav
p1277
aV15_16_46183.66_46184.46.wav
p1278
aV23_15_24088.05_24089.06.wav
p1279
aVC25_08_20688.93_20690.84.wav
p1280
aV15_16_19207.94_19208.6.wav
p1281
aV04_08_47763.51_47764.36.wav
p1282
aVc22_15_50640430.0_50641130.0.wav
p1283
aVc22_15_48950960.0_48952160.0.wav
p1284
aV04_08_13922.03_13922.86.wav
p1285
aV04_08_19710.64_19711.24.wav
p1286
aV15_16_4698.98_4699.98.wav
p1287
aVC25_08_4067.2_4068.01.wav
p1288
aVc22_15_53054030.0_53054630.0.wav
p1289
aVc22_15_50917130.0_50917730.0.wav
p1290
aV23_15_7478.76_7480.33.wav
p1291
aV15_16_4940.1_4940.89.wav
p1292
a.