(lp1
S'C25_08_31205.58_31206.18.wav'
p2
aS'04_08_39990.69_39991.4.wav'
p3
aS'04_08_1687.3_1688.03.wav'
p4
aS'04_08_25067.19_25067.99.wav'
p5
aS'c15_16_19511.04_19512.05.wav'
p6
aS'c22_15_52491280.0_52491880.0.wav'
p7
aS'c15_16_30389.95_30390.83.wav'
p8
aS'23_15_20354.77_20355.89.wav'
p9
aS'04_08_19503.74_19505.56.wav'
p10
aS'15_16_46996.01_46996.66.wav'
p11
aS'04_08_8092.67_8095.53.wav'
p12
aS'c15_16_18077.33_18080.35.wav'
p13
aS'15_16_2900.59_2901.19.wav'
p14
aS'c22_15_4083090.0_4083910.0.wav'
p15
aS'c15_16_6789.15_6790.19.wav'
p16
aS'04_08_34708.99_34709.92.wav'
p17
aS'04_08_17126.79_17127.4.wav'
p18
aS'C25_08_3099.8_3100.4.wav'
p19
aS'15_16_6695.98_6696.64.wav'
p20
aS'15_16_9638.32_9639.63.wav'
p21
aS'15_16_8888.42_8889.6.wav'
p22
aS'c22_15_665480.0_666080.0.wav'
p23
aS'04_08_11839.45_11840.05.wav'
p24
aS'c22_15_50015490.0_50016090.0.wav'
p25
aS'c22_15_51264120.0_51264860.0.wav'
p26
aS'23_15_10523.73_10524.33.wav'
p27
aS'15_16_42048.55_42050.94.wav'
p28
aS'C25_08_29844.88_29845.68.wav'
p29
aS'23_15_46564.91_46565.54.wav'
p30
aS'c15_16_26045.92_26048.85.wav'
p31
aS'c22_15_55085660.0_55086410.0.wav'
p32
aS'04_08_47431.93_47432.96.wav'
p33
aS'04_08_47445.14_47445.96.wav'
p34
aS'15_16_8232.61_8233.3.wav'
p35
aS'C25_08_16495.75_16496.35.wav'
p36
aS'15_16_14170.13_14170.73.wav'
p37
aS'15_16_15972.96_15973.57.wav'
p38
aS'04_08_26004.09_26004.69.wav'
p39
aS'04_08_17933.46_17935.24.wav'
p40
aS'c22_15_56300760.0_56301370.0.wav'
p41
aS'C25_08_21506.89_21507.49.wav'
p42
aS'15_16_2016.81_2017.67.wav'
p43
aS'04_08_1578.66_1580.62.wav'
p44
aS'23_15_48360.87_48361.52.wav'
p45
aS'15_16_39787.68_39789.19.wav'
p46
aS'04_08_17342.53_17343.83.wav'
p47
aS'23_15_1262.66_1263.4.wav'
p48
aS'c22_15_50917130.0_50917730.0.wav'
p49
aS'c15_16_19602.88_19603.81.wav'
p50
aS'C25_08_31446.65_31447.25.wav'
p51
aS'c15_16_31680.49_31681.22.wav'
p52
aS'C25_08_528.27_528.87.wav'
p53
aS'23_15_22454.95_22457.49.wav'
p54
aS'c15_16_17640.59_17641.39.wav'
p55
aS'15_16_41137.03_41138.88.wav'
p56
aS'15_16_44222.79_44223.4.wav'
p57
aS'04_08_28696.91_28697.61.wav'
p58
aS'C25_08_6444.24_6444.9.wav'
p59
aS'04_08_47984.64_47985.63.wav'
p60
aS'04_08_32600.6_32601.81.wav'
p61
aS'c22_15_49306610.0_49307310.0.wav'
p62
aS'c15_16_25659.68_25660.28.wav'
p63
aS'c15_16_9523.42_9533.45.wav'
p64
aS'15_16_48268.05_48269.05.wav'
p65
aS'C25_08_14087.6_14088.36.wav'
p66
aS'C25_08_28372.72_28373.32.wav'
p67
aS'C25_08_40190.05_40191.59.wav'
p68
aS'23_15_46690.2_46691.3.wav'
p69
aS'04_08_28038.88_28039.78.wav'
p70
aS'c22_15_3626550.0_3627150.0.wav'
p71
aS'C25_08_22435.61_22436.21.wav'
p72
aS'04_08_26114.77_26115.37.wav'
p73
aS'04_08_34127.55_34128.61.wav'
p74
aS'04_08_19350.65_19351.25.wav'
p75
aS'c15_16_17514.19_17514.86.wav'
p76
aS'23_15_18448.18_18449.24.wav'
p77
aS'04_08_28288.13_28289.59.wav'
p78
aS'23_15_12449.28_12449.88.wav'
p79
aS'c22_15_50657680.0_50658680.0.wav'
p80
aS'C25_08_14884.06_14884.8.wav'
p81
aS'15_16_45939.6_45940.24.wav'
p82
aS'15_16_41445.11_41447.39.wav'
p83
aS'c15_16_10998.38_10999.38.wav'
p84
aS'C25_08_9554.31_9554.91.wav'
p85
aS'23_15_25431.4_25432.0.wav'
p86
aS'c15_16_19865.55_19866.47.wav'
p87
aS'c22_15_52818370.0_52818970.0.wav'
p88
aS'15_16_44994.55_44995.32.wav'
p89
aS'04_08_43477.77_43478.37.wav'
p90
aS'04_08_46607.92_46608.57.wav'
p91
aS'04_08_45380.83_45381.5.wav'
p92
aS'23_15_17465.77_17468.75.wav'
p93
aS'23_15_44760.09_44760.75.wav'
p94
aS'c15_16_22177.33_22178.1.wav'
p95
aS'c15_16_22033.89_22034.49.wav'
p96
aS'C25_08_44833.33_44834.19.wav'
p97
aS'c15_16_26127.46_26128.06.wav'
p98
aS'15_16_4940.1_4940.89.wav'
p99
aS'23_15_3171.29_3173.04.wav'
p100
aS'23_15_35737.5_35738.21.wav'
p101
aS'04_08_17321.85_17325.26.wav'
p102
aS'c15_16_24733.67_24734.83.wav'
p103
aS'c22_15_32899210.0_32899910.0.wav'
p104
aS'23_15_38620.85_38621.45.wav'
p105
aS'15_16_2118.04_2118.65.wav'
p106
aS'c22_15_46979490.0_46980090.0.wav'
p107
aS'15_16_9850.85_9851.85.wav'
p108
aS'04_08_16695.77_16697.04.wav'
p109
aS'c15_16_20088.41_20089.17.wav'
p110
aS'23_15_18524.18_18526.83.wav'
p111
aS'15_16_29970.83_29971.55.wav'
p112
aS'15_16_44134.84_44136.41.wav'
p113
aS'c15_16_26799.41_26800.01.wav'
p114
aS'04_08_39558.41_39560.88.wav'
p115
aS'23_15_97.87_99.6.wav'
p116
aS'04_08_35185.64_35186.24.wav'
p117
aS'c22_15_3453610.0_3455960.0.wav'
p118
aS'C25_08_23334.72_23335.71.wav'
p119
aS'04_08_25054.65_25055.5.wav'
p120
aS'23_15_56446.52_56449.9.wav'
p121
aS'C25_08_7106.78_7107.38.wav'
p122
aS'23_15_14111.86_14112.63.wav'
p123
aS'15_16_19167.22_19168.1.wav'
p124
aS'04_08_46531.68_46532.28.wav'
p125
aS'c15_16_30789.09_30789.69.wav'
p126
aS'c15_16_46044.98_46045.58.wav'
p127
aS'C25_08_44681.04_44684.58.wav'
p128
aS'23_15_26303.74_26304.34.wav'
p129
aS'c22_15_52434190.0_52434870.0.wav'
p130
aS'15_16_11866.89_11867.69.wav'
p131
aS'c15_16_2746.7_2747.31.wav'
p132
aS'23_15_8388.14_8388.87.wav'
p133
aS'C25_08_17702.11_17702.71.wav'
p134
aS'15_16_44108.13_44108.73.wav'
p135
aS'c22_15_53966690.0_53967430.0.wav'
p136
aS'C25_08_24201.67_24202.27.wav'
p137
aS'C25_08_7254.72_7255.52.wav'
p138
aS'04_08_15744.39_15746.84.wav'
p139
aS'C25_08_24568.4_24569.15.wav'
p140
aS'04_08_28580.57_28586.46.wav'
p141
aS'c22_15_178910.0_179510.0.wav'
p142
aS'C25_08_15742.18_15743.58.wav'
p143
aS'c22_15_51468570.0_51469220.0.wav'
p144
aS'c15_16_34184.64_34185.41.wav'
p145
aS'23_15_46059.61_46060.39.wav'
p146
aS'c22_15_50021840.0_50024180.0.wav'
p147
aS'c22_15_48743800.0_48744800.0.wav'
p148
aS'04_08_34715.22_34716.99.wav'
p149
aS'c15_16_23929.12_23929.72.wav'
p150
aS'c15_16_25799.39_25800.37.wav'
p151
aS'15_16_3931.25_3931.88.wav'
p152
aS'04_08_14922.95_14924.15.wav'
p153
aS'04_08_33781.95_33784.47.wav'
p154
aS'04_08_26139.71_26140.46.wav'
p155
aS'23_15_28439.98_28442.26.wav'
p156
aS'23_15_18579.28_18580.28.wav'
p157
aS'c22_15_50589710.0_50590870.0.wav'
p158
aS'c22_15_50756540.0_50757190.0.wav'
p159
aS'C25_08_49578.13_49578.73.wav'
p160
aS'15_16_15180.9_15181.5.wav'
p161
aS'c22_15_57317510.0_57318130.0.wav'
p162
aS'04_08_8770.58_8771.18.wav'
p163
aS'C25_08_49462.17_49463.74.wav'
p164
aS'c22_15_53798960.0_53799640.0.wav'
p165
aS'23_15_44764.18_44764.97.wav'
p166
aS'04_08_34667.8_34671.06.wav'
p167
aS'C25_08_32777.34_32778.53.wav'
p168
aS'C25_08_4285.87_4286.49.wav'
p169
aS'23_15_44484.17_44485.38.wav'
p170
aS'c15_16_20633.6_20634.28.wav'
p171
aS'04_08_28302.19_28306.57.wav'
p172
aS'c15_16_5954.29_5955.82.wav'
p173
aS'c15_16_6389.36_6390.49.wav'
p174
aS'04_08_19260.56_19261.16.wav'
p175
aS'c22_15_51294760.0_51295360.0.wav'
p176
aS'c15_16_21782.53_21783.99.wav'
p177
aS'23_15_56220.44_56221.66.wav'
p178
aS'23_15_24088.05_24089.06.wav'
p179
aS'c15_16_9063.55_9064.28.wav'
p180
aS'C25_08_20220.18_20220.78.wav'
p181
aS'c22_15_50969850.0_50970450.0.wav'
p182
aS'15_16_34532.61_34533.5.wav'
p183
aS'C25_08_22907.52_22908.12.wav'
p184
aS'C25_08_20700.42_20701.44.wav'
p185
aS'c15_16_34058.32_34058.92.wav'
p186
aS'23_15_38667.84_38669.3.wav'
p187
aS'c22_15_49320240.0_49321230.0.wav'
p188
aS'15_16_37529.05_37529.65.wav'
p189
aS'c15_16_19875.45_19876.05.wav'
p190
aS'23_15_19944.41_19945.31.wav'
p191
aS'04_08_12334.62_12336.98.wav'
p192
aS'23_15_1445.87_1447.18.wav'
p193
aS'04_08_46675.67_46676.84.wav'
p194
aS'c15_16_19585.97_19586.57.wav'
p195
aS'c22_15_55337170.0_55337770.0.wav'
p196
aS'04_08_19489.03_19489.67.wav'
p197
aS'23_15_40849.42_40850.04.wav'
p198
aS'23_15_16125.1_16127.27.wav'
p199
aS'C25_08_1015.51_1018.37.wav'
p200
aS'15_16_2108.11_2108.86.wav'
p201
aS'C25_08_15301.92_15302.53.wav'
p202
aS'23_15_45609.01_45609.62.wav'
p203
aS'c15_16_14852.87_14853.51.wav'
p204
aS'c22_15_57532370.0_57534280.0.wav'
p205
aS'23_15_18421.01_18423.73.wav'
p206
aS'c15_16_19592.95_19593.72.wav'
p207
aS'C25_08_45168.05_45169.03.wav'
p208
aS'04_08_8769.04_8769.64.wav'
p209
aS'c15_16_33726.38_33727.65.wav'
p210
aS'04_08_35739.87_35740.47.wav'
p211
aS'15_16_46960.45_46962.34.wav'
p212
aS'c15_16_34456.49_34457.19.wav'
p213
aS'c15_16_33315.73_33316.33.wav'
p214
aS'23_15_46584.52_46585.33.wav'
p215
aS'23_15_18405.68_18406.38.wav'
p216
aS'c22_15_56454980.0_56457220.0.wav'
p217
aS'C25_08_39321.5_39322.1.wav'
p218
aS'23_15_48872.06_48872.9.wav'
p219
aS'15_16_46269.82_46273.96.wav'
p220
aS'04_08_43413.23_43415.06.wav'
p221
aS'C25_08_39816.81_39817.41.wav'
p222
aS'15_16_38272.78_38273.42.wav'
p223
aS'c15_16_20774.83_20775.43.wav'
p224
aS'c15_16_11485.88_11486.68.wav'
p225
aS'04_08_47840.49_47841.52.wav'
p226
aS'23_15_16543.76_16545.87.wav'
p227
aS'15_16_3743.3_3745.25.wav'
p228
aS'c22_15_50617010.0_50617630.0.wav'
p229
aS'c22_15_606580.0_607180.0.wav'
p230
aS'c22_15_51571660.0_51573460.0.wav'
p231
aS'15_16_46232.58_46237.22.wav'
p232
aS'c15_16_1501.16_1502.74.wav'
p233
aS'04_08_26290.76_26291.43.wav'
p234
aS'04_08_1802.43_1803.21.wav'
p235
aS'15_16_2851.99_2852.97.wav'
p236
aS'15_16_32301.15_32301.75.wav'
p237
aS'15_16_38666.42_38667.11.wav'
p238
aS'c22_15_53736030.0_53738060.0.wav'
p239
aS'04_08_30135.14_30135.74.wav'
p240
aS'23_15_39014.72_39015.85.wav'
p241
aS'c15_16_52738.8_52739.7.wav'
p242
aS'C25_08_20797.77_20799.04.wav'
p243
aS'15_16_11773.85_11775.02.wav'
p244
aS'04_08_33709.02_33709.67.wav'
p245
aS'c15_16_26943.68_26944.81.wav'
p246
aS'15_16_3375.5_3376.51.wav'
p247
aS'c22_15_50602890.0_50605920.0.wav'
p248
aS'23_15_28236.09_28237.16.wav'
p249
aS'c22_15_53148800.0_53149480.0.wav'
p250
aS'c22_15_43257300.0_43259200.0.wav'
p251
aS'c22_15_57144380.0_57144980.0.wav'
p252
aS'c22_15_56380070.0_56380680.0.wav'
p253
aS'c15_16_34484.9_34487.5.wav'
p254
aS'c22_15_57090700.0_57094050.0.wav'
p255
aS'c22_15_53824550.0_53825440.0.wav'
p256
aS'04_08_28319.5_28323.63.wav'
p257
aS'c15_16_23698.7_23699.37.wav'
p258
aS'c22_15_51195750.0_51196970.0.wav'
p259
aS'C25_08_6747.14_6751.34.wav'
p260
aS'c22_15_53212440.0_53213040.0.wav'
p261
aS'23_15_49174.53_49175.33.wav'
p262
aS'c22_15_45297450.0_45298050.0.wav'
p263
aS'c15_16_26271.94_26272.54.wav'
p264
aS'23_15_4746.74_4747.37.wav'
p265
aS'04_08_13922.03_13922.86.wav'
p266
aS'04_08_39992.4_39993.38.wav'
p267
aS'C25_08_29410.44_29411.92.wav'
p268
aS'c22_15_51115630.0_51116550.0.wav'
p269
aS'15_16_41368.27_41369.27.wav'
p270
aS'C25_08_27593.37_27594.39.wav'
p271
aS'c22_15_50788440.0_50792140.0.wav'
p272
aS'C25_08_21009.73_21010.63.wav'
p273
aS'C25_08_44886.9_44888.52.wav'
p274
aS'15_16_36425.48_36426.22.wav'
p275
aS'04_08_46731.97_46732.57.wav'
p276
aS'c22_15_48084020.0_48084940.0.wav'
p277
aS'23_15_21825.3_21825.91.wav'
p278
aS'15_16_37366.97_37367.79.wav'
p279
aS'04_08_29898.51_29899.47.wav'
p280
aS'15_16_10187.87_10188.66.wav'
p281
aS'23_15_31449.84_31450.83.wav'
p282
aS'15_16_4980.48_4981.08.wav'
p283
aS'23_15_7485.48_7486.17.wav'
p284
aS'c22_15_52323980.0_52324610.0.wav'
p285
aS'C25_08_15641.0_15641.72.wav'
p286
aS'15_16_41339.03_41340.95.wav'
p287
aS'c15_16_9448.61_9449.51.wav'
p288
aS'23_15_46967.76_46968.44.wav'
p289
aS'04_08_16483.17_16483.79.wav'
p290
aS'c22_15_50704530.0_50705400.0.wav'
p291
aS'04_08_2342.57_2343.57.wav'
p292
aS'c22_15_53478030.0_53478870.0.wav'
p293
aS'15_16_17213.27_17213.95.wav'
p294
aS'15_16_4094.99_4096.93.wav'
p295
aS'15_16_33277.72_33278.86.wav'
p296
aS'c22_15_40750610.0_40751470.0.wav'
p297
aS'c15_16_20188.93_20189.73.wav'
p298
aS'c15_16_21234.15_21234.75.wav'
p299
aS'C25_08_45227.2_45227.82.wav'
p300
aS'04_08_30543.4_30544.32.wav'
p301
aS'c15_16_7162.16_7163.16.wav'
p302
aS'C25_08_9269.47_9270.07.wav'
p303
aS'04_08_28856.61_28857.42.wav'
p304
aS'c22_15_56306430.0_56307430.0.wav'
p305
aS'C25_08_27343.6_27344.26.wav'
p306
aS'c15_16_26702.45_26703.28.wav'
p307
aS'C25_08_9591.97_9593.94.wav'
p308
aS'23_15_21670.99_21673.46.wav'
p309
aS'23_15_41589.92_41590.74.wav'
p310
aS'c22_15_51446770.0_51447400.0.wav'
p311
aS'C25_08_4085.58_4086.73.wav'
p312
aS'c22_15_52164750.0_52165450.0.wav'
p313
aS'15_16_31512.5_31513.13.wav'
p314
aS'c22_15_50779540.0_50781780.0.wav'
p315
aS'c15_16_20170.9_20171.71.wav'
p316
aS'04_08_32495.83_32498.93.wav'
p317
aS'15_16_46710.66_46711.55.wav'
p318
aS'c22_15_726080.0_726710.0.wav'
p319
aS'c15_16_44365.15_44365.75.wav'
p320
aS'04_08_16695.01_16695.77.wav'
p321
aS'23_15_13640.91_13641.51.wav'
p322
aS'15_16_31337.32_31338.26.wav'
p323
aS'15_16_31216.51_31217.11.wav'
p324
aS'15_16_8849.66_8850.72.wav'
p325
aS'c15_16_27582.91_27585.1.wav'
p326
aS'C25_08_1194.18_1194.93.wav'
p327
aS'15_16_46642.21_46642.81.wav'
p328
aS'c15_16_14266.06_14267.06.wav'
p329
aS'23_15_8175.62_8177.48.wav'
p330
aS'C25_08_29323.84_29325.13.wav'
p331
aS'04_08_1033.21_1034.11.wav'
p332
aS'C25_08_55917.36_55922.85.wav'
p333
aS'c15_16_5609.32_5610.24.wav'
p334
aS'15_16_9192.08_9194.39.wav'
p335
aS'23_15_35769.39_35770.78.wav'
p336
aS'c15_16_26177.64_26178.24.wav'
p337
aS'23_15_56176.48_56177.6.wav'
p338
aS'23_15_20192.6_20193.48.wav'
p339
aS'C25_08_9310.77_9311.7.wav'
p340
aS'c15_16_33765.49_33767.24.wav'
p341
aS'c15_16_22463.51_22464.4.wav'
p342
aS'c22_15_8274320.0_8275840.0.wav'
p343
aS'23_15_37964.29_37965.02.wav'
p344
aS'15_16_34550.36_34551.1.wav'
p345
aS'c15_16_34231.57_34232.17.wav'
p346
aS'15_16_1022.02_1023.06.wav'
p347
aS'c22_15_46881470.0_46883170.0.wav'
p348
aS'C25_08_31624.48_31625.74.wav'
p349
aS'15_16_38417.67_38418.29.wav'
p350
aS'23_15_44645.87_44646.76.wav'
p351
aS'c15_16_3183.47_3184.28.wav'
p352
aS'15_16_42495.57_42496.24.wav'
p353
aS'04_08_28831.77_28832.51.wav'
p354
aS'c22_15_53962970.0_53965560.0.wav'
p355
aS'15_16_44153.16_44153.87.wav'
p356
aS'c15_16_10527.59_10528.34.wav'
p357
aS'c22_15_51365830.0_51366620.0.wav'
p358
aS'23_15_41826.82_41827.42.wav'
p359
aS'c15_16_4723.5_4724.1.wav'
p360
aS'23_15_56638.94_56639.63.wav'
p361
aS'c22_15_53442830.0_53443450.0.wav'
p362
aS'04_08_16313.14_16313.75.wav'
p363
aS'23_15_27859.5_27860.22.wav'
p364
aS'23_15_20289.61_20293.95.wav'
p365
aS'c22_15_52232810.0_52233730.0.wav'
p366
aS'15_16_4804.86_4805.65.wav'
p367
aS'C25_08_3986.7_3987.3.wav'
p368
aS'15_16_36974.44_36975.74.wav'
p369
aS'C25_08_21360.46_21362.78.wav'
p370
aS'c22_15_720190.0_721140.0.wav'
p371
aS'C25_08_33051.8_33052.4.wav'
p372
aS'15_16_34535.65_34536.52.wav'
p373
aS'C25_08_22656.48_22657.1.wav'
p374
aS'C25_08_31519.7_31520.69.wav'
p375
aS'23_15_30310.17_30310.85.wav'
p376
aS'23_15_25016.89_25018.48.wav'
p377
aS'c15_16_4211.4_4212.0.wav'
p378
aS'c22_15_52750850.0_52751700.0.wav'
p379
aS'C25_08_28311.69_28312.39.wav'
p380
aS'c22_15_45849630.0_45850570.0.wav'
p381
aS'C25_08_44773.86_44780.48.wav'
p382
aS'c22_15_51345440.0_51346450.0.wav'
p383
aS'c15_16_44410.89_44411.89.wav'
p384
aS'c22_15_53760830.0_53762650.0.wav'
p385
aS'23_15_26191.94_26192.73.wav'
p386
aS'04_08_19453.73_19454.51.wav'
p387
aS'C25_08_8441.25_8442.64.wav'
p388
aS'c22_15_57067400.0_57069340.0.wav'
p389
aS'04_08_1010.32_1011.29.wav'
p390
aS'15_16_37428.66_37430.0.wav'
p391
aS'04_08_41075.63_41076.76.wav'
p392
aS'04_08_44228.39_44230.39.wav'
p393
aS'c22_15_57034720.0_57037600.0.wav'
p394
aS'C25_08_48012.78_48013.4.wav'
p395
aS'c15_16_21855.58_21856.34.wav'
p396
aS'04_08_33656.32_33660.6.wav'
p397
aS'c15_16_15332.01_15332.61.wav'
p398
aS'15_16_4009.41_4010.16.wav'
p399
aS'15_16_9073.91_9075.09.wav'
p400
aS'23_15_23399.2_23399.81.wav'
p401
aS'04_08_44424.13_44424.73.wav'
p402
aS'04_08_33432.53_33434.55.wav'
p403
aS'c22_15_49003740.0_49004350.0.wav'
p404
aS'15_16_44253.91_44254.53.wav'
p405
aS'23_15_30129.46_30130.06.wav'
p406
aS'C25_08_403.01_404.31.wav'
p407
aS'04_08_19914.55_19915.62.wav'
p408
aS'c15_16_21900.61_21901.59.wav'
p409
aS'15_16_30010.71_30011.97.wav'
p410
aS'15_16_9546.64_9547.25.wav'
p411
aS'c15_16_24690.41_24691.42.wav'
p412
aS'C25_08_23695.16_23695.88.wav'
p413
aS'c15_16_3684.9_3685.5.wav'
p414
aS'04_08_2434.86_2435.59.wav'
p415
aS'c22_15_1062020.0_1062660.0.wav'
p416
aS'c22_15_52140490.0_52141170.0.wav'
p417
aS'15_16_7031.57_7032.17.wav'
p418
aS'c22_15_53129390.0_53129990.0.wav'
p419
aS'c15_16_14245.78_14246.6.wav'
p420
aS'c22_15_51287280.0_51288870.0.wav'
p421
aS'C25_08_44402.75_44403.46.wav'
p422
aS'c15_16_11797.0_11797.76.wav'
p423
aS'c15_16_34554.01_34555.47.wav'
p424
aS'C25_08_31490.26_31490.86.wav'
p425
aS'23_15_129.67_131.1.wav'
p426
aS'23_15_20858.81_20861.05.wav'
p427
aS'c22_15_53194670.0_53198240.0.wav'
p428
aS'15_16_19085.95_19086.55.wav'
p429
aS'c22_15_53547620.0_53549560.0.wav'
p430
aS'15_16_5635.74_5636.38.wav'
p431
aS'15_16_37350.65_37351.25.wav'
p432
aS'C25_08_1255.42_1256.29.wav'
p433
aS'23_15_10785.95_10787.66.wav'
p434
aS'04_08_30586.0_30587.11.wav'
p435
aS'c22_15_4546860.0_4547730.0.wav'
p436
aS'c15_16_14416.81_14418.33.wav'
p437
aS'c22_15_47117550.0_47118150.0.wav'
p438
aS'23_15_35141.68_35143.16.wav'
p439
aS'15_16_6655.71_6656.99.wav'
p440
aS'c15_16_10428.02_10428.68.wav'
p441
aS'c22_15_50053270.0_50054310.0.wav'
p442
aS'15_16_17674.0_17675.57.wav'
p443
aS'c22_15_48716510.0_48717110.0.wav'
p444
aS'04_08_47763.51_47764.36.wav'
p445
aS'04_08_35387.0_35388.14.wav'
p446
aS'c15_16_9119.35_9119.95.wav'
p447
aS'04_08_35775.22_35775.87.wav'
p448
aS'15_16_36682.86_36683.46.wav'
p449
aS'23_15_46568.86_46569.92.wav'
p450
aS'c22_15_53224880.0_53226420.0.wav'
p451
aS'C25_08_21142.98_21144.95.wav'
p452
aS'C25_08_23679.28_23680.44.wav'
p453
aS'c22_15_57001260.0_57001980.0.wav'
p454
aS'c15_16_9416.0_9416.78.wav'
p455
aS'23_15_12633.53_12635.36.wav'
p456
aS'C25_08_17279.74_17282.04.wav'
p457
aS'c22_15_56058750.0_56060190.0.wav'
p458
aS'c15_16_30451.87_30452.47.wav'
p459
aS'C25_08_21104.88_21105.49.wav'
p460
aS'23_15_41127.16_41127.8.wav'
p461
aS'15_16_11027.59_11028.22.wav'
p462
aS'c22_15_1297640.0_1302560.0.wav'
p463
aS'23_15_44849.35_44849.95.wav'
p464
aS'04_08_741.06_741.75.wav'
p465
aS'04_08_32438.62_32439.25.wav'
p466
aS'C25_08_29422.21_29423.59.wav'
p467
aS'15_16_33979.76_33981.05.wav'
p468
aS'23_15_44503.19_44503.79.wav'
p469
aS'23_15_30144.24_30146.96.wav'
p470
aS'04_08_786.36_788.86.wav'
p471
aS'23_15_47664.76_47665.88.wav'
p472
aS'C25_08_14409.75_14410.35.wav'
p473
aS'c22_15_57029000.0_57029610.0.wav'
p474
aS'c22_15_50041370.0_50042740.0.wav'
p475
aS'c15_16_5613.36_5613.96.wav'
p476
aS'c15_16_20552.7_20553.3.wav'
p477
aS'c22_15_45182460.0_45183750.0.wav'
p478
aS'15_16_32156.59_32157.92.wav'
p479
aS'c22_15_2424780.0_2425690.0.wav'
p480
aS'c22_15_48869370.0_48870040.0.wav'
p481
aS'15_16_47345.99_47346.59.wav'
p482
aS'23_15_13006.0_13007.24.wav'
p483
aS'04_08_2827.8_2828.4.wav'
p484
aS'C25_08_22788.97_22789.66.wav'
p485
aS'04_08_25465.68_25466.28.wav'
p486
aS'C25_08_6596.17_6602.88.wav'
p487
aS'c15_16_31085.5_31086.1.wav'
p488
aS'15_16_38474.19_38474.92.wav'
p489
aS'c22_15_53399120.0_53403700.0.wav'
p490
aS'15_16_36657.98_36659.22.wav'
p491
aS'C25_08_28658.7_28659.47.wav'
p492
aS'04_08_28801.32_28802.06.wav'
p493
aS'15_16_37159.92_37160.6.wav'
p494
aS'c22_15_57487330.0_57487950.0.wav'
p495
aS'15_16_217.95_219.26.wav'
p496
aS'C25_08_21366.5_21367.52.wav'
p497
aS'C25_08_24368.16_24370.02.wav'
p498
aS'c22_15_52652700.0_52653300.0.wav'
p499
aS'23_15_49003.16_49003.99.wav'
p500
aS'C25_08_21076.64_21077.26.wav'
p501
aS'15_16_15160.82_15161.82.wav'
p502
aS'c15_16_20632.19_20632.79.wav'
p503
aS'23_15_3244.93_3245.91.wav'
p504
aS'04_08_8780.98_8781.59.wav'
p505
aS'C25_08_1125.15_1125.92.wav'
p506
aS'c15_16_14793.23_14794.39.wav'
p507
aS'c22_15_2641220.0_2642330.0.wav'
p508
aS'04_08_19037.86_19038.6.wav'
p509
aS'23_15_2615.05_2616.4.wav'
p510
aS'C25_08_9415.32_9416.75.wav'
p511
aS'23_15_2186.12_2186.77.wav'
p512
aS'15_16_2631.59_2632.25.wav'
p513
aS'15_16_34565.19_34566.37.wav'
p514
aS'15_16_45870.54_45872.39.wav'
p515
aS'c22_15_48959260.0_48960640.0.wav'
p516
aS'c22_15_57038400.0_57039460.0.wav'
p517
aS'04_08_1600.99_1602.07.wav'
p518
aS'23_15_33833.01_33833.79.wav'
p519
aS'23_15_9219.28_9219.95.wav'
p520
aS'C25_08_21949.91_21950.97.wav'
p521
aS'c15_16_30795.16_30795.76.wav'
p522
aS'15_16_7585.51_7586.44.wav'
p523
aS'15_16_4977.13_4978.13.wav'
p524
aS'15_16_2596.44_2597.34.wav'
p525
aS'c22_15_52166840.0_52167450.0.wav'
p526
aS'15_16_45107.43_45108.31.wav'
p527
aS'23_15_28070.21_28072.14.wav'
p528
aS'c22_15_46256280.0_46257150.0.wav'
p529
aS'c15_16_31144.06_31145.05.wav'
p530
aS'04_08_35862.21_35863.21.wav'
p531
aS'15_16_11144.84_11145.53.wav'
p532
aS'15_16_39667.13_39667.73.wav'
p533
aS'c15_16_24182.04_24182.86.wav'
p534
aS'04_08_13754.03_13754.86.wav'
p535
aS'c22_15_49254080.0_49256070.0.wav'
p536
aS'c22_15_46068870.0_46069510.0.wav'
p537
aS'23_15_30887.7_30888.46.wav'
p538
aS'C25_08_57277.98_57278.58.wav'
p539
aS'c15_16_1468.55_1469.31.wav'
p540
aS'15_16_39807.73_39809.51.wav'
p541
aS'23_15_18580.28_18581.09.wav'
p542
aS'c22_15_53229770.0_53230370.0.wav'
p543
aS'23_15_47876.71_47877.72.wav'
p544
aS'04_08_29223.68_29224.52.wav'
p545
aS'23_15_19957.74_19959.05.wav'
p546
aS'C25_08_11261.9_11262.56.wav'
p547
aS'15_16_42880.43_42881.34.wav'
p548
aS'23_15_8104.84_8105.64.wav'
p549
aS'c22_15_6162330.0_6162930.0.wav'
p550
aS'c15_16_20530.7_20532.01.wav'
p551
aS'23_15_14883.58_14884.99.wav'
p552
aS'04_08_34689.38_34690.64.wav'
p553
aS'04_08_34015.54_34016.61.wav'
p554
aS'c22_15_53639120.0_53639780.0.wav'
p555
aS'23_15_46225.31_46225.91.wav'
p556
aS'c15_16_44573.07_44573.82.wav'
p557
aS'C25_08_56456.77_56457.38.wav'
p558
aS'04_08_33905.98_33906.64.wav'
p559
aS'15_16_5318.58_5319.32.wav'
p560
aS'23_15_39332.99_39336.33.wav'
p561
aS'c15_16_31190.74_31191.39.wav'
p562
aS'15_16_6692.15_6692.82.wav'
p563
aS'C25_08_23485.98_23486.58.wav'
p564
aS'15_16_2143.47_2144.07.wav'
p565
aS'23_15_17919.98_17921.9.wav'
p566
aS'23_15_832.54_833.17.wav'
p567
aS'04_08_837.24_839.19.wav'
p568
aS'04_08_32191.16_32191.87.wav'
p569
aS'15_16_34649.43_34650.11.wav'
p570
aS'C25_08_22247.94_22249.44.wav'
p571
aS'15_16_32347.47_32348.17.wav'
p572
aS'C25_08_6654.02_6654.96.wav'
p573
aS'c22_15_51279100.0_51281340.0.wav'
p574
aS'C25_08_16226.46_16227.1.wav'
p575
aS'C25_08_3167.32_3167.92.wav'
p576
aS'c22_15_57383760.0_57384900.0.wav'
p577
aS'23_15_56357.38_56358.78.wav'
p578
aS'c15_16_21215.35_21215.95.wav'
p579
aS'C25_08_7097.45_7098.15.wav'
p580
aS'c22_15_45846430.0_45847730.0.wav'
p581
aS'c15_16_26317.51_26320.61.wav'
p582
aS'c22_15_57009550.0_57012280.0.wav'
p583
aS'c15_16_14527.67_14528.45.wav'
p584
aS'C25_08_27036.92_27037.92.wav'
p585
aS'15_16_36999.39_36999.99.wav'
p586
aS'c22_15_51514930.0_51515530.0.wav'
p587
aS'15_16_14205.68_14206.51.wav'
p588
aS'15_16_220.09_220.78.wav'
p589
aS'15_16_11952.66_11953.89.wav'
p590
aS'c15_16_19576.42_19577.42.wav'
p591
a.